///////////////////////////////////////////////////////////////////////////////
//
// IAR C/C++ Compiler V9.10.1.2146 for 8051               26/Jan/2015  16:23:14
// Copyright 2004-2014 IAR Systems AB.
// Standalone license - IAR Embedded Workbench for 8051
//
//    Core               =  plain
//    Code model         =  banked
//    Data model         =  large
//    Calling convention =  xdata reentrant
//    Constant location  =  data_rom
//    Dptr setup         =  1,16
//                          
//    Source file        =  
//        F:\zigbee
//        project\terminalv2\Projects\zstack\Samples\SampleApp\Source\ds18b20.c
//    Command line       =  
//        -f "F:\zigbee
//        project\terminalv2\Projects\zstack\Samples\SampleApp\CC2530DB\..\..\..\Tools\CC2530DB\f8wCoord.cfg"
//        (-DCPU32MHZ -DROOT=__near_func -DMAC_CFG_APP_PENDING_QUEUE=TRUE
//        -DMAC_CFG_TX_DATA_MAX=5 -DMAC_CFG_TX_MAX=8 -DMAC_CFG_RX_MAX=5
//        -DZDO_COORDINATOR -DRTR_NWK) -f "F:\zigbee
//        project\terminalv2\Projects\zstack\Samples\SampleApp\CC2530DB\..\..\..\Tools\CC2530DB\f8wConfig.cfg"
//        (-DZIGBEEPRO -DSECURE=0 -DZG_SECURE_DYNAMIC=0 -DREFLECTOR
//        -DDEFAULT_CHANLIST=0x00000800 -DZDAPP_CONFIG_PAN_ID=0xFFF0
//        -DNWK_START_DELAY=100 -DEXTENDED_JOINING_RANDOM_MASK=0x007F
//        -DBEACON_REQUEST_DELAY=100 -DBEACON_REQ_DELAY_MASK=0x00FF
//        -DLINK_STATUS_JITTER_MASK=0x007F -DROUTE_EXPIRY_TIME=30
//        -DAPSC_ACK_WAIT_DURATION_POLLED=3000 -DNWK_INDIRECT_MSG_TIMEOUT=7
//        -DMAX_RREQ_ENTRIES=8 -DAPSC_MAX_FRAME_RETRIES=3
//        -DNWK_MAX_DATA_RETRIES=2 -DMAX_POLL_FAILURE_RETRIES=2 -DMAX_BCAST=9
//        -DAPS_MAX_GROUPS=16 -DMAX_RTG_ENTRIES=40 -DNWK_MAX_BINDING_ENTRIES=4
//        -DMAX_BINDING_CLUSTER_IDS=4 "-DDEFAULT_KEY={0x01, 0x03, 0x05, 0x07,
//        0x09, 0x0B, 0x0D, 0x0F, 0x00, 0x02, 0x04, 0x06, 0x08, 0x0A, 0x0C,
//        0x0D}" -DMAC_MAX_FRAME_SIZE=116 -DZDNWKMGR_MIN_TRANSMISSIONS=20
//        "-DCONST=const __code" -DGENERIC=__generic -DRFD_RCVC_ALWAYS_ON=FALSE
//        -DPOLL_RATE=1000 -DQUEUED_POLL_RATE=100 -DRESPONSE_POLL_RATE=100)
//        -DREJOIN_POLL_RATE=440 "F:\zigbee
//        project\terminalv2\Projects\zstack\Samples\SampleApp\Source\ds18b20.c"
//        -D ZTOOL_P1 -D xMT_TASK -D xMT_SYS_FUNC -D xMT_ZDO_FUNC -D
//        xLCD_SUPPORTED=DEBUG -D DEV_COOR -D DEBUG_STAGE -lC "F:\zigbee
//        project\terminalv2\Projects\zstack\Samples\SampleApp\CC2530DB\CoordinatorEB\List\"
//        -lA "F:\zigbee
//        project\terminalv2\Projects\zstack\Samples\SampleApp\CC2530DB\CoordinatorEB\List\"
//        --diag_suppress Pe001,Pa010 -o "F:\zigbee
//        project\terminalv2\Projects\zstack\Samples\SampleApp\CC2530DB\CoordinatorEB\Obj\"
//        -e --no_code_motion --debug --core=plain --dptr=16,1
//        --data_model=large --code_model=banked
//        --calling_convention=xdata_reentrant --place_constants=data_rom
//        --nr_virtual_regs 8 -I "F:\zigbee
//        project\terminalv2\Projects\zstack\Samples\SampleApp\CC2530DB\" -I
//        "F:\zigbee
//        project\terminalv2\Projects\zstack\Samples\SampleApp\CC2530DB\..\Source\"
//        -I "F:\zigbee
//        project\terminalv2\Projects\zstack\Samples\SampleApp\CC2530DB\..\..\..\ZMain\TI2530DB\"
//        -I "F:\zigbee
//        project\terminalv2\Projects\zstack\Samples\SampleApp\CC2530DB\..\..\..\..\..\Components\hal\include\"
//        -I "F:\zigbee
//        project\terminalv2\Projects\zstack\Samples\SampleApp\CC2530DB\..\..\..\..\..\Components\hal\target\CC2530EB\"
//        -I "F:\zigbee
//        project\terminalv2\Projects\zstack\Samples\SampleApp\CC2530DB\..\..\..\..\..\Components\mac\include\"
//        -I "F:\zigbee
//        project\terminalv2\Projects\zstack\Samples\SampleApp\CC2530DB\..\..\..\..\..\Components\mac\high_level\"
//        -I "F:\zigbee
//        project\terminalv2\Projects\zstack\Samples\SampleApp\CC2530DB\..\..\..\..\..\Components\mac\low_level\srf04\"
//        -I "F:\zigbee
//        project\terminalv2\Projects\zstack\Samples\SampleApp\CC2530DB\..\..\..\..\..\Components\mac\low_level\srf04\single_chip\"
//        -I "F:\zigbee
//        project\terminalv2\Projects\zstack\Samples\SampleApp\CC2530DB\..\..\..\..\..\Components\mt\"
//        -I "F:\zigbee
//        project\terminalv2\Projects\zstack\Samples\SampleApp\CC2530DB\..\..\..\..\..\Components\osal\include\"
//        -I "F:\zigbee
//        project\terminalv2\Projects\zstack\Samples\SampleApp\CC2530DB\..\..\..\..\..\Components\services\saddr\"
//        -I "F:\zigbee
//        project\terminalv2\Projects\zstack\Samples\SampleApp\CC2530DB\..\..\..\..\..\Components\services\sdata\"
//        -I "F:\zigbee
//        project\terminalv2\Projects\zstack\Samples\SampleApp\CC2530DB\..\..\..\..\..\Components\stack\af\"
//        -I "F:\zigbee
//        project\terminalv2\Projects\zstack\Samples\SampleApp\CC2530DB\..\..\..\..\..\Components\stack\nwk\"
//        -I "F:\zigbee
//        project\terminalv2\Projects\zstack\Samples\SampleApp\CC2530DB\..\..\..\..\..\Components\stack\sapi\"
//        -I "F:\zigbee
//        project\terminalv2\Projects\zstack\Samples\SampleApp\CC2530DB\..\..\..\..\..\Components\stack\sec\"
//        -I "F:\zigbee
//        project\terminalv2\Projects\zstack\Samples\SampleApp\CC2530DB\..\..\..\..\..\Components\stack\sys\"
//        -I "F:\zigbee
//        project\terminalv2\Projects\zstack\Samples\SampleApp\CC2530DB\..\..\..\..\..\Components\stack\zdo\"
//        -I "F:\zigbee
//        project\terminalv2\Projects\zstack\Samples\SampleApp\CC2530DB\..\..\..\..\..\Components\zmac\"
//        -I "F:\zigbee
//        project\terminalv2\Projects\zstack\Samples\SampleApp\CC2530DB\..\..\..\..\..\Components\zmac\f8w\"
//        -Ohz --require_prototypes
//    List file          =  
//        F:\zigbee
//        project\terminalv2\Projects\zstack\Samples\SampleApp\CC2530DB\CoordinatorEB\List\ds18b20.s51
//
///////////////////////////////////////////////////////////////////////////////

        NAME ds18b20

        RTMODEL "__SystemLibrary", "CLib"
        RTMODEL "__calling_convention", "xdata_reentrant"
        RTMODEL "__code_model", "banked"
        RTMODEL "__core", "plain"
        RTMODEL "__data_model", "large"
        RTMODEL "__dptr_size", "16"
        RTMODEL "__extended_stack", "disabled"
        RTMODEL "__location_for_constants", "data"
        RTMODEL "__number_of_dptrs", "1"
        RTMODEL "__rt_version", "1"

        RSEG DOVERLAY:DATA:NOROOT(0)
        RSEG IOVERLAY:IDATA:NOROOT(0)
        RSEG ISTACK:IDATA:NOROOT(0)
        RSEG PSTACK:XDATA:NOROOT(0)
        RSEG XSTACK:XDATA:NOROOT(0)

        EXTERN ?V0
        EXTERN ?V1
        EXTERN ?BANKED_ENTER_XDATA
        EXTERN ?BANKED_LEAVE_XDATA
        EXTERN ?BDISPATCH
        EXTERN ?BRET
        EXTERN __INIT_XDATA_Z

        PUBLIC ??Ds18b20Delay?relay
        FUNCTION ??Ds18b20Delay?relay,0203H
        PUBLIC ??Ds18b20Initial?relay
        FUNCTION ??Ds18b20Initial?relay,0203H
        PUBLIC ??Ds18b20InputInitial?relay
        FUNCTION ??Ds18b20InputInitial?relay,0203H
        PUBLIC ??Ds18b20OutputInitial?relay
        FUNCTION ??Ds18b20OutputInitial?relay,0203H
        PUBLIC ??Ds18b20Read?relay
        FUNCTION ??Ds18b20Read?relay,0203H
        PUBLIC ??Ds18b20Write?relay
        FUNCTION ??Ds18b20Write?relay,0203H
        PUBLIC ??Temp_test?relay
        FUNCTION ??Temp_test?relay,0203H
        PUBLIC Ds18b20Delay
        FUNCTION Ds18b20Delay,021203H
        ARGFRAME XSTACK, 0, STACK
        LOCFRAME ISTACK, 2, STACK
        PUBLIC Ds18b20Initial
        FUNCTION Ds18b20Initial,0a1203H
        ARGFRAME XSTACK, 9, STACK
        ARGFRAME IOVERLAY, 0, STATIC
        ARGFRAME DOVERLAY, 0, STATIC
        LOCFRAME XSTACK, 10, STACK
        PUBLIC Ds18b20InputInitial
        FUNCTION Ds18b20InputInitial,0203H
        ARGFRAME XSTACK, 10, STACK
        ARGFRAME IOVERLAY, 0, STATIC
        ARGFRAME DOVERLAY, 0, STATIC
        PUBLIC Ds18b20OutputInitial
        FUNCTION Ds18b20OutputInitial,0203H
        ARGFRAME XSTACK, 10, STACK
        ARGFRAME IOVERLAY, 0, STATIC
        ARGFRAME DOVERLAY, 0, STATIC
        PUBLIC Ds18b20Read
        FUNCTION Ds18b20Read,021203H
        ARGFRAME XSTACK, 9, STACK
        ARGFRAME IOVERLAY, 0, STATIC
        ARGFRAME DOVERLAY, 0, STATIC
        LOCFRAME XSTACK, 9, STACK
        PUBLIC Ds18b20Write
        FUNCTION Ds18b20Write,021203H
        ARGFRAME XSTACK, 9, STACK
        ARGFRAME IOVERLAY, 0, STATIC
        ARGFRAME DOVERLAY, 0, STATIC
        LOCFRAME XSTACK, 9, STACK
        PUBWEAK P0DIR
        PUBLIC Temp_test
        FUNCTION Temp_test,021203H
        ARGFRAME XSTACK, 0, STACK
        LOCFRAME XSTACK, 9, STACK
        PUBWEAK _A_P0
        PUBLIC temp
        
          CFI Names cfiNames0
          CFI StackFrame CFA_SP SP IDATA
          CFI StackFrame CFA_PSP16 PSP16 XDATA
          CFI StackFrame CFA_XSP16 XSP16 XDATA
          CFI StaticOverlayFrame CFA_IOVERLAY IOVERLAY
          CFI StaticOverlayFrame CFA_DOVERLAY DOVERLAY
          CFI Resource `PSW.CY`:1, `B.BR0`:1, `B.BR1`:1, `B.BR2`:1, `B.BR3`:1
          CFI Resource `B.BR4`:1, `B.BR5`:1, `B.BR6`:1, `B.BR7`:1, `VB.BR8`:1
          CFI Resource `VB.BR9`:1, `VB.BR10`:1, `VB.BR11`:1, `VB.BR12`:1
          CFI Resource `VB.BR13`:1, `VB.BR14`:1, `VB.BR15`:1, VB:8, B:8, A:8
          CFI Resource PSW:8, DPL0:8, DPH0:8, R0:8, R1:8, R2:8, R3:8, R4:8, R5:8
          CFI Resource R6:8, R7:8, V0:8, V1:8, V2:8, V3:8, V4:8, V5:8, V6:8, V7:8
          CFI Resource SP:8, PSPH:8, PSPL:8, PSP16:16, XSPH:8, XSPL:8, XSP16:16
          CFI VirtualResource ?RET:24
          CFI Resource ?BRET_EXT:8
          CFI VirtualResource ?RET_HIGH:8, ?RET_LOW:8
          CFI ResourceParts PSP16 PSPH, PSPL
          CFI ResourceParts XSP16 XSPH, XSPL
          CFI ResourceParts ?RET ?BRET_EXT, ?RET_HIGH, ?RET_LOW
          CFI EndNames cfiNames0
        
          CFI Common cfiCommon0 Using cfiNames0
          CFI CodeAlign 1
          CFI DataAlign -1
          CFI ReturnAddress ?RET CODE
          CFI CFA_DOVERLAY Used
          CFI CFA_IOVERLAY Used
          CFI CFA_SP SP+-3
          CFI CFA_PSP16 PSP16+0
          CFI CFA_XSP16 XSP16+0
          CFI `PSW.CY` SameValue
          CFI `B.BR0` SameValue
          CFI `B.BR1` SameValue
          CFI `B.BR2` SameValue
          CFI `B.BR3` SameValue
          CFI `B.BR4` SameValue
          CFI `B.BR5` SameValue
          CFI `B.BR6` SameValue
          CFI `B.BR7` SameValue
          CFI `VB.BR8` SameValue
          CFI `VB.BR9` SameValue
          CFI `VB.BR10` SameValue
          CFI `VB.BR11` SameValue
          CFI `VB.BR12` SameValue
          CFI `VB.BR13` SameValue
          CFI `VB.BR14` SameValue
          CFI `VB.BR15` SameValue
          CFI VB SameValue
          CFI B Undefined
          CFI A Undefined
          CFI PSW SameValue
          CFI DPL0 SameValue
          CFI DPH0 SameValue
          CFI R0 Undefined
          CFI R1 Undefined
          CFI R2 Undefined
          CFI R3 Undefined
          CFI R4 Undefined
          CFI R5 Undefined
          CFI R6 SameValue
          CFI R7 SameValue
          CFI V0 SameValue
          CFI V1 SameValue
          CFI V2 SameValue
          CFI V3 SameValue
          CFI V4 SameValue
          CFI V5 SameValue
          CFI V6 SameValue
          CFI V7 SameValue
          CFI PSPH Undefined
          CFI PSPL Undefined
          CFI XSPH Undefined
          CFI XSPL Undefined
          CFI ?RET Concat
          CFI ?BRET_EXT Frame(CFA_SP, 3)
          CFI ?RET_HIGH Frame(CFA_SP, 2)
          CFI ?RET_LOW Frame(CFA_SP, 1)
          CFI EndCommon cfiCommon0
        
Onboard_wait        SYMBOL "Onboard_wait"
??Onboard_wait?relay SYMBOL "?relay", Onboard_wait
Ds18b20Delay        SYMBOL "Ds18b20Delay"
??Ds18b20Delay?relay SYMBOL "?relay", Ds18b20Delay
Ds18b20Initial      SYMBOL "Ds18b20Initial"
??Ds18b20Initial?relay SYMBOL "?relay", Ds18b20Initial
Ds18b20InputInitial SYMBOL "Ds18b20InputInitial"
??Ds18b20InputInitial?relay SYMBOL "?relay", Ds18b20InputInitial
Ds18b20OutputInitial SYMBOL "Ds18b20OutputInitial"
??Ds18b20OutputInitial?relay SYMBOL "?relay", Ds18b20OutputInitial
Ds18b20Read         SYMBOL "Ds18b20Read"
??Ds18b20Read?relay SYMBOL "?relay", Ds18b20Read
Ds18b20Write        SYMBOL "Ds18b20Write"
??Ds18b20Write?relay SYMBOL "?relay", Ds18b20Write
Temp_test           SYMBOL "Temp_test"
??Temp_test?relay   SYMBOL "?relay", Temp_test

        EXTERN ??Onboard_wait?relay
        FUNCTION ??Onboard_wait?relay,00H
        EXTERN Onboard_wait
        FUNCTION Onboard_wait,0202H
        ARGFRAME ISTACK, 2, STACK
        ARGFRAME PSTACK, 0, STACK
        ARGFRAME XSTACK, 10, STACK
        ARGFRAME IOVERLAY, 0, STATIC
        ARGFRAME DOVERLAY, 0, STATIC

// F:\zigbee project\terminalv2\Projects\zstack\Samples\SampleApp\Source\ds18b20.c
//    1 
//    2 #include"iocc2530.h"

        ASEGN SFR_AN:DATA:NOROOT,080H
// union <unnamed> volatile __sfr _A_P0
_A_P0:
        DATA8
        DS 1

        ASEGN SFR_AN:DATA:NOROOT,0fdH
// unsigned char volatile __sfr P0DIR
P0DIR:
        DATA8
        DS 1
//    3 #include "OnBoard.h"
//    4 #define uint unsigned int 
//    5 #define uchar unsigned char
//    6 
//    7 #define Ds18b20Data P0_6 //温度传感器引脚
//    8 
//    9 #define ON 0x01  //读取成功返回0x00，失败返回0x01
//   10 #define OFF 0x00
//   11 
//   12 void Ds18b20Delay(uint k);
//   13 void Ds18b20InputInitial(void);
//   14 void Ds18b20OutputInitial(void);
//   15 uchar Ds18b20Initial(void);
//   16 void Ds18b20Write(uchar infor);
//   17 uchar Ds18b20Read(void);void Temp_test(void);
//   18 
//   19 

        RSEG XDATA_Z:XDATA:NOROOT(0)
        DATA8
//   20 unsigned char temp; //储存温度信息
temp:
        DS 1
        REQUIRE __INIT_XDATA_Z
//   21 
//   22 //时钟频率为32M

        RSEG BANKED_CODE:CODE:NOROOT(0)
//   23 void Ds18b20Delay(uint k)
Ds18b20Delay:
          CFI Block cfiBlock0 Using cfiCommon0
          CFI Function Ds18b20Delay
        CODE
//   24 {
        FUNCALL Ds18b20Delay, Onboard_wait
        LOCFRAME ISTACK, 2, STACK
        LOCFRAME PSTACK, 0, STACK
        LOCFRAME XSTACK, 0, STACK
        LOCFRAME IOVERLAY, 0, STATIC
        LOCFRAME DOVERLAY, 0, STATIC
        ARGFRAME ISTACK, 2, STACK
        ARGFRAME PSTACK, 0, STACK
        ARGFRAME XSTACK, 0, STACK
        ARGFRAME IOVERLAY, 0, STATIC
        ARGFRAME DOVERLAY, 0, STATIC
        PUSH    DPL
          CFI DPL0 Frame(CFA_SP, 4)
          CFI CFA_SP SP+-4
        PUSH    DPH
          CFI DPH0 Frame(CFA_SP, 5)
          CFI CFA_SP SP+-5
        ; Saved register size: 2
        ; Auto size: 0
//   25   MicroWait(k);
        ; Setup parameters for call to function Onboard_wait
        LCALL   ??Onboard_wait?relay ; Banked call to: Onboard_wait
//   26 // MicroWait(k);
//   27 }
        POP     DPH
          CFI DPH0 SameValue
          CFI CFA_SP SP+-4
        POP     DPL
          CFI DPL0 SameValue
          CFI CFA_SP SP+-3
        LJMP    ?BRET
          CFI EndBlock cfiBlock0
//   28 

        RSEG BANKED_CODE:CODE:NOROOT(0)
//   29 void Ds18b20InputInitial(void)//设置端口为输入
Ds18b20InputInitial:
          CFI Block cfiBlock1 Using cfiCommon0
          CFI Function Ds18b20InputInitial
        CODE
//   30 {
        ; Saved register size: 0
        ; Auto size: 0
//   31   P0DIR &= 0xbf;
        ANL     0xfd,#0xbf
//   32 }
        LJMP    ?BRET
          CFI EndBlock cfiBlock1
        REQUIRE P0DIR
//   33 

        RSEG BANKED_CODE:CODE:NOROOT(0)
//   34 void Ds18b20OutputInitial(void)//设置端口为输出
Ds18b20OutputInitial:
          CFI Block cfiBlock2 Using cfiCommon0
          CFI Function Ds18b20OutputInitial
        CODE
//   35 {
        ; Saved register size: 0
        ; Auto size: 0
//   36    P0DIR |= 0x40;
        ORL     0xfd,#0x40
//   37 }
        LJMP    ?BRET
          CFI EndBlock cfiBlock2
        REQUIRE P0DIR
//   38 
//   39 //ds18b20初始化
//   40 //初始化成功返回0x00，失败返回0x01

        RSEG BANKED_CODE:CODE:NOROOT(0)
//   41 uchar Ds18b20Initial(void)
Ds18b20Initial:
          CFI Block cfiBlock3 Using cfiCommon0
          CFI Function Ds18b20Initial
        CODE
//   42 {
        FUNCALL Ds18b20Initial, Ds18b20OutputInitial
        LOCFRAME ISTACK, 0, STACK
        LOCFRAME PSTACK, 0, STACK
        LOCFRAME XSTACK, 10, STACK
        LOCFRAME IOVERLAY, 0, STATIC
        LOCFRAME DOVERLAY, 0, STATIC
        ARGFRAME ISTACK, 0, STACK
        ARGFRAME PSTACK, 0, STACK
        ARGFRAME XSTACK, 10, STACK
        ARGFRAME IOVERLAY, 0, STATIC
        ARGFRAME DOVERLAY, 0, STATIC
        FUNCALL Ds18b20Initial, Onboard_wait
        LOCFRAME ISTACK, 0, STACK
        LOCFRAME PSTACK, 0, STACK
        LOCFRAME XSTACK, 10, STACK
        LOCFRAME IOVERLAY, 0, STATIC
        LOCFRAME DOVERLAY, 0, STATIC
        ARGFRAME ISTACK, 0, STACK
        ARGFRAME PSTACK, 0, STACK
        ARGFRAME XSTACK, 10, STACK
        ARGFRAME IOVERLAY, 0, STATIC
        ARGFRAME DOVERLAY, 0, STATIC
        FUNCALL Ds18b20Initial, Onboard_wait
        LOCFRAME ISTACK, 0, STACK
        LOCFRAME PSTACK, 0, STACK
        LOCFRAME XSTACK, 10, STACK
        LOCFRAME IOVERLAY, 0, STATIC
        LOCFRAME DOVERLAY, 0, STATIC
        ARGFRAME ISTACK, 0, STACK
        ARGFRAME PSTACK, 0, STACK
        ARGFRAME XSTACK, 10, STACK
        ARGFRAME IOVERLAY, 0, STATIC
        ARGFRAME DOVERLAY, 0, STATIC
        FUNCALL Ds18b20Initial, Ds18b20InputInitial
        LOCFRAME ISTACK, 0, STACK
        LOCFRAME PSTACK, 0, STACK
        LOCFRAME XSTACK, 10, STACK
        LOCFRAME IOVERLAY, 0, STATIC
        LOCFRAME DOVERLAY, 0, STATIC
        ARGFRAME ISTACK, 0, STACK
        ARGFRAME PSTACK, 0, STACK
        ARGFRAME XSTACK, 10, STACK
        ARGFRAME IOVERLAY, 0, STATIC
        ARGFRAME DOVERLAY, 0, STATIC
        FUNCALL Ds18b20Initial, Onboard_wait
        LOCFRAME ISTACK, 0, STACK
        LOCFRAME PSTACK, 0, STACK
        LOCFRAME XSTACK, 10, STACK
        LOCFRAME IOVERLAY, 0, STATIC
        LOCFRAME DOVERLAY, 0, STATIC
        ARGFRAME ISTACK, 0, STACK
        ARGFRAME PSTACK, 0, STACK
        ARGFRAME XSTACK, 10, STACK
        ARGFRAME IOVERLAY, 0, STATIC
        ARGFRAME DOVERLAY, 0, STATIC
        FUNCALL Ds18b20Initial, Ds18b20OutputInitial
        LOCFRAME ISTACK, 0, STACK
        LOCFRAME PSTACK, 0, STACK
        LOCFRAME XSTACK, 10, STACK
        LOCFRAME IOVERLAY, 0, STATIC
        LOCFRAME DOVERLAY, 0, STATIC
        ARGFRAME ISTACK, 0, STACK
        ARGFRAME PSTACK, 0, STACK
        ARGFRAME XSTACK, 10, STACK
        ARGFRAME IOVERLAY, 0, STATIC
        ARGFRAME DOVERLAY, 0, STATIC
        FUNCALL Ds18b20Initial, Onboard_wait
        LOCFRAME ISTACK, 0, STACK
        LOCFRAME PSTACK, 0, STACK
        LOCFRAME XSTACK, 10, STACK
        LOCFRAME IOVERLAY, 0, STATIC
        LOCFRAME DOVERLAY, 0, STATIC
        ARGFRAME ISTACK, 0, STACK
        ARGFRAME PSTACK, 0, STACK
        ARGFRAME XSTACK, 10, STACK
        ARGFRAME IOVERLAY, 0, STATIC
        ARGFRAME DOVERLAY, 0, STATIC
        REQUIRE ?V0
        REQUIRE ?V1
        MOV     A,#-0xa
        LCALL   ?BANKED_ENTER_XDATA
          CFI DPH0 load(1, XDATA, add(CFA_XSP16, literal(-1)))
          CFI DPL0 load(1, XDATA, add(CFA_XSP16, literal(-2)))
          CFI ?BRET_EXT load(1, XDATA, add(CFA_XSP16, literal(-3)))
          CFI ?RET_HIGH load(1, XDATA, add(CFA_XSP16, literal(-4)))
          CFI ?RET_LOW load(1, XDATA, add(CFA_XSP16, literal(-5)))
          CFI R7 load(1, XDATA, add(CFA_XSP16, literal(-6)))
          CFI V1 load(1, XDATA, add(CFA_XSP16, literal(-7)))
          CFI V0 load(1, XDATA, add(CFA_XSP16, literal(-8)))
          CFI VB load(1, XDATA, add(CFA_XSP16, literal(-9)))
          CFI R6 load(1, XDATA, add(CFA_XSP16, literal(-10)))
          CFI CFA_SP SP+0
          CFI CFA_XSP16 add(XSP16, 10)
        ; Saved register size: 10
        ; Auto size: 0
//   43   uchar Status = 0x00;
        MOV     ?V0,#0x0
//   44   uint CONT_1 = 0;
        MOV     R6,#0x0
        MOV     R7,#0x0
//   45   uchar Flag_1 = ON;
        MOV     ?V1,#0x1
//   46   Ds18b20OutputInitial();
        ; Setup parameters for call to function Ds18b20OutputInitial
        LCALL   ??Ds18b20OutputInitial?relay; Banked call to: Ds18b20OutputInitial
//   47   Ds18b20Data = 1;
        SETB    0x80.6
//   48   Ds18b20Delay(260);
        ; Setup parameters for call to function Onboard_wait
        MOV     R2,#0x4
        MOV     R3,#0x1
        LCALL   ??Onboard_wait?relay ; Banked call to: Onboard_wait
//   49   Ds18b20Data = 0;
        CLR     0x80.6
//   50   Ds18b20Delay(750);
        ; Setup parameters for call to function Onboard_wait
        MOV     R2,#-0x12
        MOV     R3,#0x2
        LCALL   ??Onboard_wait?relay ; Banked call to: Onboard_wait
//   51   Ds18b20Data = 1;
        SETB    0x80.6
//   52   Ds18b20InputInitial();
        ; Setup parameters for call to function Ds18b20InputInitial
        LCALL   ??Ds18b20InputInitial?relay; Banked call to: Ds18b20InputInitial
        SJMP    ??Ds18b20Initial_0
//   53   while((Ds18b20Data != 0)&&(Flag_1 == ON))//等待ds18b20响应，具有防止超时功能
//   54   {                                        //等待约60ms左右
//   55     CONT_1++;
??Ds18b20Initial_1:
        INC     R6
        MOV     A,R6
        JNZ     ??Ds18b20Initial_2
        INC     R7
//   56     Ds18b20Delay(10);
??Ds18b20Initial_2:
        ; Setup parameters for call to function Onboard_wait
        MOV     R2,#0xa
        MOV     R3,#0x0
        LCALL   ??Onboard_wait?relay ; Banked call to: Onboard_wait
//   57     if(CONT_1 > 8000)Flag_1 = OFF;
        CLR     C
        MOV     A,R6
        SUBB    A,#0x41
        MOV     A,R7
        SUBB    A,#0x1f
        JC      ??Ds18b20Initial_3
        MOV     ?V1,#0x0
//   58     Status = Ds18b20Data;
??Ds18b20Initial_3:
        MOV     C,0x80.6
        CLR     A
        RLC     A
        MOV     ?V0,A
//   59   }
??Ds18b20Initial_0:
        MOV     C,0x80.6
        JNC     ??Ds18b20Initial_4
        MOV     A,?V1
        MOV     C,0xE0 /* A   */.0
        JC      ??Ds18b20Initial_1
//   60   Ds18b20OutputInitial();
??Ds18b20Initial_4:
        ; Setup parameters for call to function Ds18b20OutputInitial
        LCALL   ??Ds18b20OutputInitial?relay; Banked call to: Ds18b20OutputInitial
//   61   Ds18b20Data = 1;
        SETB    0x80.6
//   62   Ds18b20Delay(100);
        ; Setup parameters for call to function Onboard_wait
        MOV     R2,#0x64
        MOV     R3,#0x0
        LCALL   ??Onboard_wait?relay ; Banked call to: Onboard_wait
//   63   return Status;
        MOV     R1,?V0
        MOV     R7,#0x2
        LJMP    ?BANKED_LEAVE_XDATA
          CFI EndBlock cfiBlock3
        REQUIRE _A_P0
//   64 }
//   65 
//   66 

        RSEG BANKED_CODE:CODE:NOROOT(0)
//   67 void Ds18b20Write(uchar infor)
Ds18b20Write:
          CFI Block cfiBlock4 Using cfiCommon0
          CFI Function Ds18b20Write
        CODE
//   68 {
        FUNCALL Ds18b20Write, Ds18b20OutputInitial
        LOCFRAME ISTACK, 0, STACK
        LOCFRAME PSTACK, 0, STACK
        LOCFRAME XSTACK, 9, STACK
        LOCFRAME IOVERLAY, 0, STATIC
        LOCFRAME DOVERLAY, 0, STATIC
        ARGFRAME ISTACK, 0, STACK
        ARGFRAME PSTACK, 0, STACK
        ARGFRAME XSTACK, 9, STACK
        ARGFRAME IOVERLAY, 0, STATIC
        ARGFRAME DOVERLAY, 0, STATIC
        FUNCALL Ds18b20Write, Onboard_wait
        LOCFRAME ISTACK, 0, STACK
        LOCFRAME PSTACK, 0, STACK
        LOCFRAME XSTACK, 9, STACK
        LOCFRAME IOVERLAY, 0, STATIC
        LOCFRAME DOVERLAY, 0, STATIC
        ARGFRAME ISTACK, 0, STACK
        ARGFRAME PSTACK, 0, STACK
        ARGFRAME XSTACK, 9, STACK
        ARGFRAME IOVERLAY, 0, STATIC
        ARGFRAME DOVERLAY, 0, STATIC
        FUNCALL Ds18b20Write, Onboard_wait
        LOCFRAME ISTACK, 0, STACK
        LOCFRAME PSTACK, 0, STACK
        LOCFRAME XSTACK, 9, STACK
        LOCFRAME IOVERLAY, 0, STATIC
        LOCFRAME DOVERLAY, 0, STATIC
        ARGFRAME ISTACK, 0, STACK
        ARGFRAME PSTACK, 0, STACK
        ARGFRAME XSTACK, 9, STACK
        ARGFRAME IOVERLAY, 0, STATIC
        ARGFRAME DOVERLAY, 0, STATIC
        FUNCALL Ds18b20Write, Onboard_wait
        LOCFRAME ISTACK, 0, STACK
        LOCFRAME PSTACK, 0, STACK
        LOCFRAME XSTACK, 9, STACK
        LOCFRAME IOVERLAY, 0, STATIC
        LOCFRAME DOVERLAY, 0, STATIC
        ARGFRAME ISTACK, 0, STACK
        ARGFRAME PSTACK, 0, STACK
        ARGFRAME XSTACK, 9, STACK
        ARGFRAME IOVERLAY, 0, STATIC
        ARGFRAME DOVERLAY, 0, STATIC
        FUNCALL Ds18b20Write, Onboard_wait
        LOCFRAME ISTACK, 0, STACK
        LOCFRAME PSTACK, 0, STACK
        LOCFRAME XSTACK, 9, STACK
        LOCFRAME IOVERLAY, 0, STATIC
        LOCFRAME DOVERLAY, 0, STATIC
        ARGFRAME ISTACK, 0, STACK
        ARGFRAME PSTACK, 0, STACK
        ARGFRAME XSTACK, 9, STACK
        ARGFRAME IOVERLAY, 0, STATIC
        ARGFRAME DOVERLAY, 0, STATIC
        MOV     A,#-0x9
        LCALL   ?BANKED_ENTER_XDATA
          CFI DPH0 load(1, XDATA, add(CFA_XSP16, literal(-1)))
          CFI DPL0 load(1, XDATA, add(CFA_XSP16, literal(-2)))
          CFI ?BRET_EXT load(1, XDATA, add(CFA_XSP16, literal(-3)))
          CFI ?RET_HIGH load(1, XDATA, add(CFA_XSP16, literal(-4)))
          CFI ?RET_LOW load(1, XDATA, add(CFA_XSP16, literal(-5)))
          CFI R7 load(1, XDATA, add(CFA_XSP16, literal(-6)))
          CFI V0 load(1, XDATA, add(CFA_XSP16, literal(-7)))
          CFI VB load(1, XDATA, add(CFA_XSP16, literal(-8)))
          CFI R6 load(1, XDATA, add(CFA_XSP16, literal(-9)))
          CFI CFA_SP SP+0
          CFI CFA_XSP16 add(XSP16, 9)
        ; Saved register size: 9
        ; Auto size: 0
        MOV     A,R1
        MOV     R7,A
//   69   uint i;
//   70   Ds18b20OutputInitial();
        ; Setup parameters for call to function Ds18b20OutputInitial
        LCALL   ??Ds18b20OutputInitial?relay; Banked call to: Ds18b20OutputInitial
//   71   for(i=0;i<8;i++)
        MOV     R6,#0x8
//   72   {
//   73   if((infor & 0x01))
??Ds18b20Write_0:
        MOV     A,R7
        MOV     C,0xE0 /* A   */.0
        CLR     0x80.6
        JNC     ??Ds18b20Write_1
//   74   {
//   75   Ds18b20Data = 0;
//   76   Ds18b20Delay(6);
        ; Setup parameters for call to function Onboard_wait
        MOV     R2,#0x6
        MOV     R3,#0x0
        LCALL   ??Onboard_wait?relay ; Banked call to: Onboard_wait
//   77   Ds18b20Data = 1;
        SETB    0x80.6
//   78   Ds18b20Delay(50);
        ; Setup parameters for call to function Onboard_wait
        MOV     R2,#0x32
        SJMP    ??Ds18b20Write_2
//   79   }
//   80   else
//   81   {
//   82   Ds18b20Data = 0;
//   83   Ds18b20Delay(50);
??Ds18b20Write_1:
        ; Setup parameters for call to function Onboard_wait
        MOV     R2,#0x32
        MOV     R3,#0x0
        LCALL   ??Onboard_wait?relay ; Banked call to: Onboard_wait
//   84   Ds18b20Data = 1;
        SETB    0x80.6
//   85   Ds18b20Delay(6);
        ; Setup parameters for call to function Onboard_wait
        MOV     R2,#0x6
??Ds18b20Write_2:
        MOV     R3,#0x0
        LCALL   ??Onboard_wait?relay ; Banked call to: Onboard_wait
//   86   }
//   87   infor >>= 1;
        MOV     A,R7
        CLR     C
        RRC     A
        MOV     R7,A
//   88   }
        DEC     R6
        MOV     A,R6
        JNZ     ??Ds18b20Write_0
          CFI EndBlock cfiBlock4
//   89 }
        REQUIRE ?Subroutine0
        REQUIRE _A_P0
        ; // Fall through to label ?Subroutine0

        RSEG BANKED_CODE:CODE:NOROOT(0)
?Subroutine0:
          CFI Block cfiBlock5 Using cfiCommon0
          CFI NoFunction
          CFI CFA_SP SP+0
          CFI CFA_XSP16 add(XSP16, 9)
          CFI VB load(1, XDATA, add(CFA_XSP16, literal(-8)))
          CFI DPL0 load(1, XDATA, add(CFA_XSP16, literal(-2)))
          CFI DPH0 load(1, XDATA, add(CFA_XSP16, literal(-1)))
          CFI R6 load(1, XDATA, add(CFA_XSP16, literal(-9)))
          CFI R7 load(1, XDATA, add(CFA_XSP16, literal(-6)))
          CFI V0 load(1, XDATA, add(CFA_XSP16, literal(-7)))
          CFI ?BRET_EXT load(1, XDATA, add(CFA_XSP16, literal(-3)))
          CFI ?RET_HIGH load(1, XDATA, add(CFA_XSP16, literal(-4)))
          CFI ?RET_LOW load(1, XDATA, add(CFA_XSP16, literal(-5)))
        MOV     R7,#0x1
        LJMP    ?BANKED_LEAVE_XDATA
          CFI EndBlock cfiBlock5
//   90 

        RSEG BANKED_CODE:CODE:NOROOT(0)
//   91 uchar Ds18b20Read(void)
Ds18b20Read:
          CFI Block cfiBlock6 Using cfiCommon0
          CFI Function Ds18b20Read
        CODE
//   92 {
        FUNCALL Ds18b20Read, Ds18b20OutputInitial
        LOCFRAME ISTACK, 0, STACK
        LOCFRAME PSTACK, 0, STACK
        LOCFRAME XSTACK, 9, STACK
        LOCFRAME IOVERLAY, 0, STATIC
        LOCFRAME DOVERLAY, 0, STATIC
        ARGFRAME ISTACK, 0, STACK
        ARGFRAME PSTACK, 0, STACK
        ARGFRAME XSTACK, 9, STACK
        ARGFRAME IOVERLAY, 0, STATIC
        ARGFRAME DOVERLAY, 0, STATIC
        FUNCALL Ds18b20Read, Onboard_wait
        LOCFRAME ISTACK, 0, STACK
        LOCFRAME PSTACK, 0, STACK
        LOCFRAME XSTACK, 9, STACK
        LOCFRAME IOVERLAY, 0, STATIC
        LOCFRAME DOVERLAY, 0, STATIC
        ARGFRAME ISTACK, 0, STACK
        ARGFRAME PSTACK, 0, STACK
        ARGFRAME XSTACK, 9, STACK
        ARGFRAME IOVERLAY, 0, STATIC
        ARGFRAME DOVERLAY, 0, STATIC
        FUNCALL Ds18b20Read, Ds18b20OutputInitial
        LOCFRAME ISTACK, 0, STACK
        LOCFRAME PSTACK, 0, STACK
        LOCFRAME XSTACK, 9, STACK
        LOCFRAME IOVERLAY, 0, STATIC
        LOCFRAME DOVERLAY, 0, STATIC
        ARGFRAME ISTACK, 0, STACK
        ARGFRAME PSTACK, 0, STACK
        ARGFRAME XSTACK, 9, STACK
        ARGFRAME IOVERLAY, 0, STATIC
        ARGFRAME DOVERLAY, 0, STATIC
        FUNCALL Ds18b20Read, Onboard_wait
        LOCFRAME ISTACK, 0, STACK
        LOCFRAME PSTACK, 0, STACK
        LOCFRAME XSTACK, 9, STACK
        LOCFRAME IOVERLAY, 0, STATIC
        LOCFRAME DOVERLAY, 0, STATIC
        ARGFRAME ISTACK, 0, STACK
        ARGFRAME PSTACK, 0, STACK
        ARGFRAME XSTACK, 9, STACK
        ARGFRAME IOVERLAY, 0, STATIC
        ARGFRAME DOVERLAY, 0, STATIC
        FUNCALL Ds18b20Read, Onboard_wait
        LOCFRAME ISTACK, 0, STACK
        LOCFRAME PSTACK, 0, STACK
        LOCFRAME XSTACK, 9, STACK
        LOCFRAME IOVERLAY, 0, STATIC
        LOCFRAME DOVERLAY, 0, STATIC
        ARGFRAME ISTACK, 0, STACK
        ARGFRAME PSTACK, 0, STACK
        ARGFRAME XSTACK, 9, STACK
        ARGFRAME IOVERLAY, 0, STATIC
        ARGFRAME DOVERLAY, 0, STATIC
        FUNCALL Ds18b20Read, Ds18b20InputInitial
        LOCFRAME ISTACK, 0, STACK
        LOCFRAME PSTACK, 0, STACK
        LOCFRAME XSTACK, 9, STACK
        LOCFRAME IOVERLAY, 0, STATIC
        LOCFRAME DOVERLAY, 0, STATIC
        ARGFRAME ISTACK, 0, STACK
        ARGFRAME PSTACK, 0, STACK
        ARGFRAME XSTACK, 9, STACK
        ARGFRAME IOVERLAY, 0, STATIC
        ARGFRAME DOVERLAY, 0, STATIC
        FUNCALL Ds18b20Read, Onboard_wait
        LOCFRAME ISTACK, 0, STACK
        LOCFRAME PSTACK, 0, STACK
        LOCFRAME XSTACK, 9, STACK
        LOCFRAME IOVERLAY, 0, STATIC
        LOCFRAME DOVERLAY, 0, STATIC
        ARGFRAME ISTACK, 0, STACK
        ARGFRAME PSTACK, 0, STACK
        ARGFRAME XSTACK, 9, STACK
        ARGFRAME IOVERLAY, 0, STATIC
        ARGFRAME DOVERLAY, 0, STATIC
        MOV     A,#-0x9
        LCALL   ?BANKED_ENTER_XDATA
          CFI DPH0 load(1, XDATA, add(CFA_XSP16, literal(-1)))
          CFI DPL0 load(1, XDATA, add(CFA_XSP16, literal(-2)))
          CFI ?BRET_EXT load(1, XDATA, add(CFA_XSP16, literal(-3)))
          CFI ?RET_HIGH load(1, XDATA, add(CFA_XSP16, literal(-4)))
          CFI ?RET_LOW load(1, XDATA, add(CFA_XSP16, literal(-5)))
          CFI R7 load(1, XDATA, add(CFA_XSP16, literal(-6)))
          CFI V0 load(1, XDATA, add(CFA_XSP16, literal(-7)))
          CFI VB load(1, XDATA, add(CFA_XSP16, literal(-8)))
          CFI R6 load(1, XDATA, add(CFA_XSP16, literal(-9)))
          CFI CFA_SP SP+0
          CFI CFA_XSP16 add(XSP16, 9)
        ; Saved register size: 9
        ; Auto size: 0
//   93   uchar Value = 0x00;
        MOV     R6,#0x0
//   94   uint i;
//   95   Ds18b20OutputInitial();
        ; Setup parameters for call to function Ds18b20OutputInitial
        LCALL   ??Ds18b20OutputInitial?relay; Banked call to: Ds18b20OutputInitial
//   96   Ds18b20Data = 1;
        SETB    0x80.6
//   97   Ds18b20Delay(10);
        ; Setup parameters for call to function Onboard_wait
        MOV     R2,#0xa
        MOV     R3,#0x0
        LCALL   ??Onboard_wait?relay ; Banked call to: Onboard_wait
//   98   for(i=0;i<8;i++)
        MOV     R7,#0x8
//   99   {
//  100   Value >>= 1; 
??Ds18b20Read_0:
        MOV     A,R6
        CLR     C
        RRC     A
        MOV     R6,A
//  101   Ds18b20OutputInitial();
        ; Setup parameters for call to function Ds18b20OutputInitial
        LCALL   ??Ds18b20OutputInitial?relay; Banked call to: Ds18b20OutputInitial
//  102   Ds18b20Data = 0;
        CLR     0x80.6
//  103   Ds18b20Delay(3);
        ; Setup parameters for call to function Onboard_wait
        MOV     R2,#0x3
        MOV     R3,#0x0
        LCALL   ??Onboard_wait?relay ; Banked call to: Onboard_wait
//  104   Ds18b20Data = 1;
        SETB    0x80.6
//  105   Ds18b20Delay(3);
        ; Setup parameters for call to function Onboard_wait
        MOV     R2,#0x3
        MOV     R3,#0x0
        LCALL   ??Onboard_wait?relay ; Banked call to: Onboard_wait
//  106   Ds18b20InputInitial();
        ; Setup parameters for call to function Ds18b20InputInitial
        LCALL   ??Ds18b20InputInitial?relay; Banked call to: Ds18b20InputInitial
//  107   if(Ds18b20Data == 1) 
        MOV     C,0x80.6
        JNC     ??Ds18b20Read_1
//  108     Value |= 0x80;
        MOV     A,R6
        SETB    0xE0 /* A   */.7
        MOV     R6,A
//  109   Ds18b20Delay(15);
??Ds18b20Read_1:
        ; Setup parameters for call to function Onboard_wait
        MOV     R2,#0xf
        MOV     R3,#0x0
        LCALL   ??Onboard_wait?relay ; Banked call to: Onboard_wait
//  110   } 
        DEC     R7
        MOV     A,R7
        JNZ     ??Ds18b20Read_0
//  111   return Value;
        MOV     A,R6
        MOV     R1,A
        SJMP    ?Subroutine0
          CFI EndBlock cfiBlock6
        REQUIRE _A_P0
//  112 }
//  113 
//  114 

        RSEG BANKED_CODE:CODE:NOROOT(0)
//  115 void Temp_test(void) //温度读取函数
Temp_test:
          CFI Block cfiBlock7 Using cfiCommon0
          CFI Function Temp_test
        CODE
//  116 {
        FUNCALL Temp_test, Ds18b20Initial
        LOCFRAME ISTACK, 0, STACK
        LOCFRAME PSTACK, 0, STACK
        LOCFRAME XSTACK, 9, STACK
        LOCFRAME IOVERLAY, 0, STATIC
        LOCFRAME DOVERLAY, 0, STATIC
        ARGFRAME ISTACK, 0, STACK
        ARGFRAME PSTACK, 0, STACK
        ARGFRAME XSTACK, 9, STACK
        ARGFRAME IOVERLAY, 0, STATIC
        ARGFRAME DOVERLAY, 0, STATIC
        FUNCALL Temp_test, Ds18b20Write
        LOCFRAME ISTACK, 0, STACK
        LOCFRAME PSTACK, 0, STACK
        LOCFRAME XSTACK, 9, STACK
        LOCFRAME IOVERLAY, 0, STATIC
        LOCFRAME DOVERLAY, 0, STATIC
        ARGFRAME ISTACK, 0, STACK
        ARGFRAME PSTACK, 0, STACK
        ARGFRAME XSTACK, 9, STACK
        ARGFRAME IOVERLAY, 0, STATIC
        ARGFRAME DOVERLAY, 0, STATIC
        FUNCALL Temp_test, Ds18b20Write
        LOCFRAME ISTACK, 0, STACK
        LOCFRAME PSTACK, 0, STACK
        LOCFRAME XSTACK, 9, STACK
        LOCFRAME IOVERLAY, 0, STATIC
        LOCFRAME DOVERLAY, 0, STATIC
        ARGFRAME ISTACK, 0, STACK
        ARGFRAME PSTACK, 0, STACK
        ARGFRAME XSTACK, 9, STACK
        ARGFRAME IOVERLAY, 0, STATIC
        ARGFRAME DOVERLAY, 0, STATIC
        FUNCALL Temp_test, Ds18b20Initial
        LOCFRAME ISTACK, 0, STACK
        LOCFRAME PSTACK, 0, STACK
        LOCFRAME XSTACK, 9, STACK
        LOCFRAME IOVERLAY, 0, STATIC
        LOCFRAME DOVERLAY, 0, STATIC
        ARGFRAME ISTACK, 0, STACK
        ARGFRAME PSTACK, 0, STACK
        ARGFRAME XSTACK, 9, STACK
        ARGFRAME IOVERLAY, 0, STATIC
        ARGFRAME DOVERLAY, 0, STATIC
        FUNCALL Temp_test, Ds18b20Write
        LOCFRAME ISTACK, 0, STACK
        LOCFRAME PSTACK, 0, STACK
        LOCFRAME XSTACK, 9, STACK
        LOCFRAME IOVERLAY, 0, STATIC
        LOCFRAME DOVERLAY, 0, STATIC
        ARGFRAME ISTACK, 0, STACK
        ARGFRAME PSTACK, 0, STACK
        ARGFRAME XSTACK, 9, STACK
        ARGFRAME IOVERLAY, 0, STATIC
        ARGFRAME DOVERLAY, 0, STATIC
        FUNCALL Temp_test, Ds18b20Write
        LOCFRAME ISTACK, 0, STACK
        LOCFRAME PSTACK, 0, STACK
        LOCFRAME XSTACK, 9, STACK
        LOCFRAME IOVERLAY, 0, STATIC
        LOCFRAME DOVERLAY, 0, STATIC
        ARGFRAME ISTACK, 0, STACK
        ARGFRAME PSTACK, 0, STACK
        ARGFRAME XSTACK, 9, STACK
        ARGFRAME IOVERLAY, 0, STATIC
        ARGFRAME DOVERLAY, 0, STATIC
        FUNCALL Temp_test, Ds18b20Read
        LOCFRAME ISTACK, 0, STACK
        LOCFRAME PSTACK, 0, STACK
        LOCFRAME XSTACK, 9, STACK
        LOCFRAME IOVERLAY, 0, STATIC
        LOCFRAME DOVERLAY, 0, STATIC
        ARGFRAME ISTACK, 0, STACK
        ARGFRAME PSTACK, 0, STACK
        ARGFRAME XSTACK, 9, STACK
        ARGFRAME IOVERLAY, 0, STATIC
        ARGFRAME DOVERLAY, 0, STATIC
        FUNCALL Temp_test, Ds18b20Read
        LOCFRAME ISTACK, 0, STACK
        LOCFRAME PSTACK, 0, STACK
        LOCFRAME XSTACK, 9, STACK
        LOCFRAME IOVERLAY, 0, STATIC
        LOCFRAME DOVERLAY, 0, STATIC
        ARGFRAME ISTACK, 0, STACK
        ARGFRAME PSTACK, 0, STACK
        ARGFRAME XSTACK, 9, STACK
        ARGFRAME IOVERLAY, 0, STATIC
        ARGFRAME DOVERLAY, 0, STATIC
        MOV     A,#-0x9
        LCALL   ?BANKED_ENTER_XDATA
          CFI DPH0 load(1, XDATA, add(CFA_XSP16, literal(-1)))
          CFI DPL0 load(1, XDATA, add(CFA_XSP16, literal(-2)))
          CFI ?BRET_EXT load(1, XDATA, add(CFA_XSP16, literal(-3)))
          CFI ?RET_HIGH load(1, XDATA, add(CFA_XSP16, literal(-4)))
          CFI ?RET_LOW load(1, XDATA, add(CFA_XSP16, literal(-5)))
          CFI R7 load(1, XDATA, add(CFA_XSP16, literal(-6)))
          CFI V0 load(1, XDATA, add(CFA_XSP16, literal(-7)))
          CFI VB load(1, XDATA, add(CFA_XSP16, literal(-8)))
          CFI R6 load(1, XDATA, add(CFA_XSP16, literal(-9)))
          CFI CFA_SP SP+0
          CFI CFA_XSP16 add(XSP16, 9)
        ; Saved register size: 9
        ; Auto size: 0
//  117   uchar V1,V2;
//  118  
//  119   Ds18b20Initial();
        ; Setup parameters for call to function Ds18b20Initial
        LCALL   ??Ds18b20Initial?relay; Banked call to: Ds18b20Initial
//  120   Ds18b20Write(0xcc);
        ; Setup parameters for call to function Ds18b20Write
        MOV     R1,#-0x34
        LCALL   ??Ds18b20Write?relay ; Banked call to: Ds18b20Write
//  121   Ds18b20Write(0x44);
        ; Setup parameters for call to function Ds18b20Write
        MOV     R1,#0x44
        LCALL   ??Ds18b20Write?relay ; Banked call to: Ds18b20Write
//  122   
//  123   Ds18b20Initial();
        ; Setup parameters for call to function Ds18b20Initial
        LCALL   ??Ds18b20Initial?relay; Banked call to: Ds18b20Initial
//  124   Ds18b20Write(0xcc);
        ; Setup parameters for call to function Ds18b20Write
        MOV     R1,#-0x34
        LCALL   ??Ds18b20Write?relay ; Banked call to: Ds18b20Write
//  125   Ds18b20Write(0xbe);
        ; Setup parameters for call to function Ds18b20Write
        MOV     R1,#-0x42
        LCALL   ??Ds18b20Write?relay ; Banked call to: Ds18b20Write
//  126   
//  127   V1 = Ds18b20Read();
        ; Setup parameters for call to function Ds18b20Read
        LCALL   ??Ds18b20Read?relay  ; Banked call to: Ds18b20Read
        MOV     A,R1
        MOV     R6,A
//  128   V2 = Ds18b20Read();
//  129 
//  130   temp = ((V1 >> 4)+((V2 & 0x07)*16)); 
        ; Setup parameters for call to function Ds18b20Read
        LCALL   ??Ds18b20Read?relay  ; Banked call to: Ds18b20Read
        MOV     A,R1
        ANL     A,#0x7
        SWAP    A
        MOV     R0,A
        MOV     A,R6
        SWAP    A
        ANL     A,#0xf
        ADD     A,R0
        MOV     DPTR,#temp
        MOVX    @DPTR,A
//  131 
//  132 }
        LJMP    ?Subroutine0 & 0xFFFF
          CFI EndBlock cfiBlock7

        RSEG BANK_RELAYS:CODE:REORDER:NOROOT(0)
??Ds18b20Delay?relay:
        CODE
        LCALL   ?BDISPATCH
        DATA24
        DC24    Ds18b20Delay

        RSEG BANK_RELAYS:CODE:REORDER:NOROOT(0)
??Ds18b20InputInitial?relay:
        CODE
        LCALL   ?BDISPATCH
        DATA24
        DC24    Ds18b20InputInitial

        RSEG BANK_RELAYS:CODE:REORDER:NOROOT(0)
??Ds18b20OutputInitial?relay:
        CODE
        LCALL   ?BDISPATCH
        DATA24
        DC24    Ds18b20OutputInitial

        RSEG BANK_RELAYS:CODE:REORDER:NOROOT(0)
??Ds18b20Initial?relay:
        CODE
        LCALL   ?BDISPATCH
        DATA24
        DC24    Ds18b20Initial

        RSEG BANK_RELAYS:CODE:REORDER:NOROOT(0)
??Ds18b20Write?relay:
        CODE
        LCALL   ?BDISPATCH
        DATA24
        DC24    Ds18b20Write

        RSEG BANK_RELAYS:CODE:REORDER:NOROOT(0)
??Ds18b20Read?relay:
        CODE
        LCALL   ?BDISPATCH
        DATA24
        DC24    Ds18b20Read

        RSEG BANK_RELAYS:CODE:REORDER:NOROOT(0)
??Temp_test?relay:
        CODE
        LCALL   ?BDISPATCH
        DATA24
        DC24    Temp_test

        END
// 
// 317 bytes in segment BANKED_CODE
//  42 bytes in segment BANK_RELAYS
//   2 bytes in segment SFR_AN
//   1 byte  in segment XDATA_Z
// 
// 359 bytes of CODE  memory
//   0 bytes of DATA  memory (+ 2 bytes shared)
//   1 byte  of XDATA memory
//
//Errors: none
//Warnings: none
