###############################################################################
#                                                                             #
# IAR C/C++ Compiler V8.10.1.10194/W32 for 8051         18/Jan/2015  15:24:58 #
# Copyright 2004-2011 IAR Systems AB.                                         #
#                                                                             #
#    Core               =  plain                                              #
#    Code model         =  banked                                             #
#    Data model         =  large                                              #
#    Calling convention =  xdata reentrant                                    #
#    Constant location  =  data_rom                                           #
#    Dptr setup         =  1,16                                               #
#    Source file        =  F:\zigbee project\terminal\Projects\zstack\Samples #
#                          \SampleApp\Source\SampleApp.c                      #
#    Command line       =  -f "F:\zigbee project\terminal\Projects\zstack\Sam #
#                          ples\SampleApp\CC2530DB\..\..\..\Tools\CC2530DB\f8 #
#                          wCoord.cfg" (-DCPU32MHZ -DROOT=__near_func         #
#                          -DMAC_CFG_APP_PENDING_QUEUE=TRUE                   #
#                          -DMAC_CFG_TX_DATA_MAX=5 -DMAC_CFG_TX_MAX=8         #
#                          -DMAC_CFG_RX_MAX=5 -DZDO_COORDINATOR -DRTR_NWK)    #
#                          -f "F:\zigbee project\terminal\Projects\zstack\Sam #
#                          ples\SampleApp\CC2530DB\..\..\..\Tools\CC2530DB\f8 #
#                          wConfig.cfg" (-DZIGBEEPRO -DSECURE=0               #
#                          -DZG_SECURE_DYNAMIC=0 -DREFLECTOR                  #
#                          -DDEFAULT_CHANLIST=0x00000800                      #
#                          -DZDAPP_CONFIG_PAN_ID=0xFFF0                       #
#                          -DNWK_START_DELAY=100 -DEXTENDED_JOINING_RANDOM_MA #
#                          SK=0x007F -DBEACON_REQUEST_DELAY=100               #
#                          -DBEACON_REQ_DELAY_MASK=0x00FF                     #
#                          -DLINK_STATUS_JITTER_MASK=0x007F                   #
#                          -DROUTE_EXPIRY_TIME=30 -DAPSC_ACK_WAIT_DURATION_PO #
#                          LLED=3000 -DNWK_INDIRECT_MSG_TIMEOUT=7             #
#                          -DMAX_RREQ_ENTRIES=8 -DAPSC_MAX_FRAME_RETRIES=3    #
#                          -DNWK_MAX_DATA_RETRIES=2                           #
#                          -DMAX_POLL_FAILURE_RETRIES=2 -DMAX_BCAST=9         #
#                          -DAPS_MAX_GROUPS=16 -DMAX_RTG_ENTRIES=40           #
#                          -DNWK_MAX_BINDING_ENTRIES=4                        #
#                          -DMAX_BINDING_CLUSTER_IDS=4 "-DDEFAULT_KEY={0x01,  #
#                          0x03, 0x05, 0x07, 0x09, 0x0B, 0x0D, 0x0F, 0x00,    #
#                          0x02, 0x04, 0x06, 0x08, 0x0A, 0x0C, 0x0D}"         #
#                          -DMAC_MAX_FRAME_SIZE=116                           #
#                          -DZDNWKMGR_MIN_TRANSMISSIONS=20 "-DCONST=const     #
#                          __code" -DGENERIC=__generic                        #
#                          -DRFD_RCVC_ALWAYS_ON=FALSE -DPOLL_RATE=1000        #
#                          -DQUEUED_POLL_RATE=100 -DRESPONSE_POLL_RATE=100)   #
#                          -DREJOIN_POLL_RATE=440 "F:\zigbee                  #
#                          project\terminal\Projects\zstack\Samples\SampleApp #
#                          \Source\SampleApp.c" -D ZTOOL_P1 -D MT_TASK -D     #
#                          MT_SYS_FUNC -D MT_ZDO_FUNC -D LCD_SUPPORTED=DEBUG  #
#                          -lC "F:\zigbee project\terminal\Projects\zstack\Sa #
#                          mples\SampleApp\CC2530DB\CoordinatorEB\List\" -lA  #
#                          "F:\zigbee project\terminal\Projects\zstack\Sample #
#                          s\SampleApp\CC2530DB\CoordinatorEB\List\"          #
#                          --diag_suppress Pe001,Pa010 -o "F:\zigbee          #
#                          project\terminal\Projects\zstack\Samples\SampleApp #
#                          \CC2530DB\CoordinatorEB\Obj\" -e --no_code_motion  #
#                          --debug --core=plain --dptr=16,1                   #
#                          --data_model=large --code_model=banked             #
#                          --calling_convention=xdata_reentrant               #
#                          --place_constants=data_rom --nr_virtual_regs 16    #
#                          -I "F:\zigbee project\terminal\Projects\zstack\Sam #
#                          ples\SampleApp\CC2530DB\" -I "F:\zigbee            #
#                          project\terminal\Projects\zstack\Samples\SampleApp #
#                          \CC2530DB\..\Source\" -I "F:\zigbee                #
#                          project\terminal\Projects\zstack\Samples\SampleApp #
#                          \CC2530DB\..\..\..\ZMain\TI2530DB\" -I "F:\zigbee  #
#                          project\terminal\Projects\zstack\Samples\SampleApp #
#                          \CC2530DB\..\..\..\..\..\Components\hal\include\"  #
#                          -I "F:\zigbee project\terminal\Projects\zstack\Sam #
#                          ples\SampleApp\CC2530DB\..\..\..\..\..\Components\ #
#                          hal\target\CC2530EB\" -I "F:\zigbee                #
#                          project\terminal\Projects\zstack\Samples\SampleApp #
#                          \CC2530DB\..\..\..\..\..\Components\mac\include\"  #
#                          -I "F:\zigbee project\terminal\Projects\zstack\Sam #
#                          ples\SampleApp\CC2530DB\..\..\..\..\..\Components\ #
#                          mac\high_level\" -I "F:\zigbee                     #
#                          project\terminal\Projects\zstack\Samples\SampleApp #
#                          \CC2530DB\..\..\..\..\..\Components\mac\low_level\ #
#                          srf04\" -I "F:\zigbee project\terminal\Projects\zs #
#                          tack\Samples\SampleApp\CC2530DB\..\..\..\..\..\Com #
#                          ponents\mac\low_level\srf04\single_chip\" -I       #
#                          "F:\zigbee project\terminal\Projects\zstack\Sample #
#                          s\SampleApp\CC2530DB\..\..\..\..\..\Components\mt\ #
#                          " -I "F:\zigbee project\terminal\Projects\zstack\S #
#                          amples\SampleApp\CC2530DB\..\..\..\..\..\Component #
#                          s\osal\include\" -I "F:\zigbee                     #
#                          project\terminal\Projects\zstack\Samples\SampleApp #
#                          \CC2530DB\..\..\..\..\..\Components\services\saddr #
#                          \" -I "F:\zigbee project\terminal\Projects\zstack\ #
#                          Samples\SampleApp\CC2530DB\..\..\..\..\..\Componen #
#                          ts\services\sdata\" -I "F:\zigbee                  #
#                          project\terminal\Projects\zstack\Samples\SampleApp #
#                          \CC2530DB\..\..\..\..\..\Components\stack\af\" -I  #
#                          "F:\zigbee project\terminal\Projects\zstack\Sample #
#                          s\SampleApp\CC2530DB\..\..\..\..\..\Components\sta #
#                          ck\nwk\" -I "F:\zigbee project\terminal\Projects\z #
#                          stack\Samples\SampleApp\CC2530DB\..\..\..\..\..\Co #
#                          mponents\stack\sapi\" -I "F:\zigbee                #
#                          project\terminal\Projects\zstack\Samples\SampleApp #
#                          \CC2530DB\..\..\..\..\..\Components\stack\sec\"    #
#                          -I "F:\zigbee project\terminal\Projects\zstack\Sam #
#                          ples\SampleApp\CC2530DB\..\..\..\..\..\Components\ #
#                          stack\sys\" -I "F:\zigbee                          #
#                          project\terminal\Projects\zstack\Samples\SampleApp #
#                          \CC2530DB\..\..\..\..\..\Components\stack\zdo\"    #
#                          -I "F:\zigbee project\terminal\Projects\zstack\Sam #
#                          ples\SampleApp\CC2530DB\..\..\..\..\..\Components\ #
#                          zmac\" -I "F:\zigbee project\terminal\Projects\zst #
#                          ack\Samples\SampleApp\CC2530DB\..\..\..\..\..\Comp #
#                          onents\zmac\f8w\" -Ohz --require_prototypes        #
#    List file          =  F:\zigbee project\terminal\Projects\zstack\Samples #
#                          \SampleApp\CC2530DB\CoordinatorEB\List\SampleApp.l #
#                          st                                                 #
#    Object file        =  F:\zigbee project\terminal\Projects\zstack\Samples #
#                          \SampleApp\CC2530DB\CoordinatorEB\Obj\SampleApp.r5 #
#                          1                                                  #
#                                                                             #
#                                                                             #
###############################################################################

F:\zigbee project\terminal\Projects\zstack\Samples\SampleApp\Source\SampleApp.c
      1          /**************************************************************************************************
      2            Filename:       SampleApp.c
      3            Revised:        $Date: 2009-03-18 15:56:27 -0700 (Wed, 18 Mar 2009) $
      4            Revision:       $Revision: 19453 $
      5          
      6            Description:    Sample Application (no Profile).
      7          
      8          
      9            Copyright 2007 Texas Instruments Incorporated. All rights reserved.
     10          
     11            IMPORTANT: Your use of this Software is limited to those specific rights
     12            granted under the terms of a software license agreement between the user
     13            who downloaded the software, his/her employer (which must be your employer)
     14            and Texas Instruments Incorporated (the "License").  You may not use this
     15            Software unless you agree to abide by the terms of the License. The License
     16            limits your use, and you acknowledge, that the Software may not be modified,
     17            copied or distributed unless embedded on a Texas Instruments microcontroller
     18            or used solely and exclusively in conjunction with a Texas Instruments radio
     19            frequency transceiver, which is integrated into your product.  Other than for
     20            the foregoing purpose, you may not use, reproduce, copy, prepare derivative
     21            works of, modify, distribute, perform, display or sell this Software and/or
     22            its documentation for any purpose.
     23          
     24            YOU FURTHER ACKNOWLEDGE AND AGREE THAT THE SOFTWARE AND DOCUMENTATION ARE
     25            PROVIDED AS IS?WITHOUT WARRANTY OF ANY KIND, EITHER EXPRESS OR IMPLIED,
     26            INCLUDING WITHOUT LIMITATION, ANY WARRANTY OF MERCHANTABILITY, TITLE,
     27            NON-INFRINGEMENT AND FITNESS FOR A PARTICULAR PURPOSE. IN NO EVENT SHALL
     28            TEXAS INSTRUMENTS OR ITS LICENSORS BE LIABLE OR OBLIGATED UNDER CONTRACT,
     29            NEGLIGENCE, STRICT LIABILITY, CONTRIBUTION, BREACH OF WARRANTY, OR OTHER
     30            LEGAL EQUITABLE THEORY ANY DIRECT OR INDIRECT DAMAGES OR EXPENSES
     31            INCLUDING BUT NOT LIMITED TO ANY INCIDENTAL, SPECIAL, INDIRECT, PUNITIVE
     32            OR CONSEQUENTIAL DAMAGES, LOST PROFITS OR LOST DATA, COST OF PROCUREMENT
     33            OF SUBSTITUTE GOODS, TECHNOLOGY, SERVICES, OR ANY CLAIMS BY THIRD PARTIES
     34            (INCLUDING BUT NOT LIMITED TO ANY DEFENSE THEREOF), OR OTHER SIMILAR COSTS.
     35          
     36            Should you have any questions regarding your right to use this Software,
     37            contact Texas Instruments Incorporated at www.TI.com.
     38          **************************************************************************************************/
     39          
     40          /*********************************************************************
     41            This application isn't intended to do anything useful, it is
     42            intended to be a simple example of an application's structure.
     43          
     44            This application sends it's messages either as broadcast or
     45            broadcast filtered group messages.  The other (more normal)
     46            message addressing is unicast.  Most of the other sample
     47            applications are written to support the unicast message model.
     48          
     49            Key control:
     50              SW1:  Sends a flash command to all devices in Group 1.
     51              SW2:  Adds/Removes (toggles) this device in and out
     52                    of Group 1.  This will enable and disable the
     53                    reception of the flash command.
     54          *********************************************************************/
     55          
     56          /*********************************************************************
     57           * INCLUDES
     58           */
     59          #include "OSAL.h"
     60          #include "ZGlobals.h"
     61          #include "AF.h"
     62          #include "aps_groups.h"
     63          #include "ZDApp.h"
     64          
     65          #include "SampleApp.h"
     66          #include "SampleAppHw.h"
     67          
     68          #include "OnBoard.h"
     69          
     70          /* HAL */
     71          #include "hal_lcd.h"
     72          #include "hal_led.h"
     73          #include "hal_key.h"
     74          #include "mt_uart.h"//串口头文件
     75          //#include "MT_APP.H"
     76          #include "MT.h"//CMD_SERIAL_MSG任务ID在这里定义的
     77          #include <ioCC2530.h>
     78          #include <stdio.h>
     79          #define DEV_COOR
     80          #define DEBUG_STAGE
     81          /*
     82          #ifndef DEV_COOR
     83          #include "ds18b02.h"
     84          #endif
     85          */
     86          /**********************定义******************************/
     87          #ifndef CMD_H
     88          #define CMD_H
     89          /***定义命令的类型****/
     90          #define CMD_TYPE_CLOSELINK             0x00         /*断开连接*/
     91          #define CMD_TYPE_QUERYREQUEST          0x01         /*查询请求*/
     92          #define CMD_TYPE_QUERYRESPONSE         0x02         /*查询应答*/
     93          #define CMD_TYPE_CONTROLREQUEST        0x03         /*控制请求*/
     94          #define CMD_TYPE_CONTROLRESPONSE       0x04         /*控制应带*/
     95          /***cmd命令操作类型*/
     96          #define CMD_CONTROL_OPEN               0x00     // 打开 
     97          #define CMD_CONTROL_CLOSE              0x01     // 关闭
     98          #define CMD_CONTROL_WRITE              0x02     // 写 
     99          #define CMD_CONTROL_READ               0x03     // 读 
    100          #define CMD_CONTROL_START              0x04     // 开始 
    101          #define CMD_CONTROL_STOP               0x05     // 结束
    102          
    103          /***定义房间ID***/
    104          #define CMD_ROOM_LIVINGROOM             0x00       //客厅
    105          #define CMD_ROOM_BEDROOM                0x01       //卧室
    106          #define CMD_ROOM_KITCHEN                0x02       //厨房
    107          /**cmd设备类型定义*/
    108          #define CMD_DEV_LED                0x00     // 灯
    109          #define CMD_DEV_CURTAIN            0x01     //窗帘
    110          /**命令的类型**/
    111          #define  CmdFlag         0                             /*帧头*/
    112          #define  CmdType         1                             /* 命令类型 */
    113          #define  CmdCtrlType     2                             /* 命令控制的类型 */
    114          #define  CmdCtrlValue    3                             /* 命令值 */
    115          #define  CmdRoomId       4                             /* 房间号 */
    116          #define  CmdDevType      5                             /* 设备类型 */
    117          #define  CmdDevId        6                             /* 设备号 */
    118          
    119          #define  CMD_LEN         7                              //命令长度为11个字节
    120          #endif
    121          /*****************************以上为CMD******************************************/
    122          /*********自带led定义**********/
    123          #define LED1    HAL_LED_1  //自带的LED
    124          #define LED2    HAL_LED_2
    125          #define LED3    HAL_LED_3
    126          #define LED_ON  HAL_LED_MODE_ON
    127          #define LED_OFF HAL_LED_MODE_OFF
    128          /*********************各设备功能模块定义************************/
    129          /*****************************************************************
    130              功能实现：DEV_LIGHT     灯      P0.4   输出
    131                        DEV_CURTAIN   窗帘    P0.0   输出
    132          ***************************************************************/
    133          //灯 P0.4 输出
    134          #ifdef  DEV_LIGHT
    135            #define DEV_LIGHT1_OPEN()        do{P0_4 = 1;}while(0);
    136            #define DEV_LIGHT1_CLOSE()       do{P0_4 = 0;}while(0);
    137            #define DEV_LIGHT1_BIT           (P0_4)
    138          #endif
    139          //窗帘 P0.0 输出
    140          #ifdef  DEV_CURTAIN
    141            #define DEV_CURTAIN_OPEN()       do{P0_0 = 1;}while(0);
    142            #define DEV_CURTAIN_CLOSE()      do{P0_0 = 0;}while(0);
    143            #define DEV_CURTAIN_BIT          (P0_0)
    144          #endif
    145          /*****************功能模块定义结束**************************/
    146          
    147          /***定义特有的房间号**/
    148          /********************************************
    149          LIVING_ROOM     客厅
    150          *******************************************/
    151          #ifndef DEV_COOR
    152              // #error  outdev_coor
    153               #ifdef  LIVING_ROOM
    154               #define ROOM_NUM   CMD_ROOM_LIVINGROOM //把房间号定义为客厅
    155               #endif
    156               #ifdef BED_ROOM
    157                 #define ROOM_NUM CMD_ROOM_BEDROOM
    158               #endif 
    159               #ifdef KITCHEN_ROOM
    160                 #define ROOM_NUM CMD_ROOM_KITCHEN
    161               #endif
    162               #define DEV_NUM 1
    163          #endif
    164          /***********************************************************/
    165          /******************定义房间数量与设备的孰料***************/
    166          #ifdef DEV_COOR
    167          
    168            //#error  indev_coor
    169          
    170            #define ROOM_COUNT 3
    171            #define DEV_COUNT 1
    172          #endif
    173          /********************************************************/
    174          
    175          //定义标志东西
    176          #define FRAME_FLAG  (0x7f)   //数据框架判断
    177          #define ERROR_FLAG  (0x6f)   
    178          /*********************************************************************
    179           * MACROS
    180           */
    181          
    182          /*********************************************************************
    183           * CONSTANTS
    184           */
    185          
    186          /*********************************************************************
    187           * TYPEDEFS
    188           */
    189          
    190          /*********************************************************************
    191           * GLOBAL VARIABLES
    192           */
    193          
    194          // This list should be filled with Application specific Cluster IDs.

   \                                 In  segment XDATA_ROM_C, align 1
    195          const cId_t SampleApp_ClusterList[SAMPLEAPP_MAX_CLUSTERS] =
   \                     SampleApp_ClusterList:
   \   000000   0100         DW 1
   \   000002   0200         DW 2
    196          {
    197            SAMPLEAPP_PERIODIC_CLUSTERID,
    198            SAMPLEAPP_FLASH_CLUSTERID
    199          };
    200          

   \                                 In  segment XDATA_ROM_C, align 1
    201          const SimpleDescriptionFormat_t SampleApp_SimpleDesc =
   \                     SampleApp_SimpleDesc:
   \   000000   14           DB 20
   \   000001   080F         DW 3848
   \   000003   0100         DW 1
   \   000005   00           DB 0
   \   000006   02           DB 2
   \   000007   ....         DW SampleApp_ClusterList
   \   000009   02           DB 2
   \   00000A   ....         DW SampleApp_ClusterList
    202          {
    203            SAMPLEAPP_ENDPOINT,              //  int Endpoint;
    204            SAMPLEAPP_PROFID,                //  uint16 AppProfId[2];
    205            SAMPLEAPP_DEVICEID,              //  uint16 AppDeviceId[2];
    206            SAMPLEAPP_DEVICE_VERSION,        //  int   AppDevVer:4;
    207            SAMPLEAPP_FLAGS,                 //  int   AppFlags:4;
    208            SAMPLEAPP_MAX_CLUSTERS,          //  uint8  AppNumInClusters;
    209            (cId_t *)SampleApp_ClusterList,  //  uint8 *pAppInClusterList;
    210            SAMPLEAPP_MAX_CLUSTERS,          //  uint8  AppNumInClusters;
    211            (cId_t *)SampleApp_ClusterList   //  uint8 *pAppInClusterList;
    212          };
    213          
    214          // This is the Endpoint/Interface description.  It is defined here, but
    215          // filled-in in SampleApp_Init().  Another way to go would be to fill
    216          // in the structure here and make it a "const" (in code space).  The
    217          // way it's defined in this sample app it is define in RAM.
    218          
    219          
    220          
    221          
    222          

   \                                 In  segment XDATA_Z, align 1, keep-with-next
    223          endPointDesc_t SampleApp_epDesc;
   \                     SampleApp_epDesc:
   \   000000                DS 6
   \   000006                REQUIRE __INIT_XDATA_Z
    224          //int DoorBellPressed = 0;//门铃
    225          
    226          
    227          
    228          /*********************************************************************
    229           * EXTERNAL VARIABLES
    230           */
    231          
    232          /*********************************************************************
    233           * EXTERNAL FUNCTIONS
    234           */
    235          
    236          /*********************************************************************
    237           * LOCAL VARIABLES
    238           */

   \                                 In  segment XDATA_Z, align 1, keep-with-next
    239          uint8 SampleApp_TaskID;   // Task ID for internal task/event processing
   \                     SampleApp_TaskID:
   \   000000                DS 1
   \   000001                REQUIRE __INIT_XDATA_Z
    240                                    // This variable will be received when
    241                                    // SampleApp_Init() is called.

   \                                 In  segment XDATA_Z, align 1, keep-with-next
    242          devStates_t SampleApp_NwkState;
   \                     SampleApp_NwkState:
   \   000000                DS 1
   \   000001                REQUIRE __INIT_XDATA_Z
    243          #ifdef DEBUG_STAGE//debug模式

   \                                 In  segment XDATA_I, align 1, keep-with-next
    244                 uint8 asc_16[16] = {'0','1','2','3','4','5','6','7','8','9','A','B','C','D','E','F'};
   \                     asc_16:
   \   000000                DS 16
   \   000010                REQUIRE `?<Initializer for asc_16>`
   \   000010                REQUIRE __INIT_XDATA_I
    245          #endif      

   \                                 In  segment XDATA_Z, align 1, keep-with-next
    246          uint8 SampleApp_TransID;  // This is the unique message ID (counter)
   \                     SampleApp_TransID:
   \   000000                DS 1
   \   000001                REQUIRE __INIT_XDATA_Z
    247          

   \                                 In  segment XDATA_Z, align 1, keep-with-next
    248          afAddrType_t SampleApp_Periodic_DstAddr;
   \                     SampleApp_Periodic_DstAddr:
   \   000000                DS 12
   \   00000C                REQUIRE __INIT_XDATA_Z

   \                                 In  segment XDATA_Z, align 1, keep-with-next
    249          afAddrType_t SampleApp_Flash_DstAddr;
   \                     SampleApp_Flash_DstAddr:
   \   000000                DS 12
   \   00000C                REQUIRE __INIT_XDATA_Z
    250          /**自己定义的点对点的传输**/
    251          

   \                                 In  segment XDATA_Z, align 1, keep-with-next
    252            afAddrType_t SampleApp_Point_to_Point_DstAddr;
   \                     SampleApp_Point_to_Point_DstAddr:
   \   000000                DS 12
   \   00000C                REQUIRE __INIT_XDATA_Z
    253          
    254          /**************/

   \                                 In  segment XDATA_Z, align 1, keep-with-next
    255          aps_Group_t SampleApp_Group;
   \                     SampleApp_Group:
   \   000000                DS 18
   \   000012                REQUIRE __INIT_XDATA_Z
    256          

   \                                 In  segment XDATA_Z, align 1, keep-with-next
    257          uint8 SampleAppPeriodicCounter = 0;
   \                     SampleAppPeriodicCounter:
   \   000000                DS 1
   \   000001                REQUIRE __INIT_XDATA_Z

   \                                 In  segment XDATA_Z, align 1, keep-with-next
    258          uint8 SampleAppFlashCounter = 0;
   \                     SampleAppFlashCounter:
   \   000000                DS 1
   \   000001                REQUIRE __INIT_XDATA_Z
    259          /*******路由表单********/
    260          #ifdef DEV_COOR

   \                                 In  segment XDATA_Z, align 1, keep-with-next
    261            uint16 Routing_Table[ROOM_COUNT][DEV_COUNT]={0};
   \                     Routing_Table:
   \   000000                DS 6
   \   000006                REQUIRE __INIT_XDATA_Z
    262          #endif
    263          
    264          //unsigned char temp_bank = 0;
    265          /************/
    266          /*********************************************************************
    267           * LOCAL FUNCTIONS
    268           */
    269          void SampleApp_HandleKeys( uint8 shift, uint8 keys );
    270          void SampleApp_MessageMSGCB( afIncomingMSGPacket_t *pckt );
    271          void SampleApp_SendPeriodicMessage( void );
    272          void SampleApp_SendFlashMessage( uint16 flashTime );
    273          
    274          /***my funtions**/
    275          #ifdef DEV_COOR
    276            void SampleApp_SerialCMD(mtOSALSerialData_t *cmdMsg);//串口接受到数据处理函数的申明
    277          #endif
    278            //void P1_ISR(void);
    279          /*********************************************************************
    280           * NETWORK LAYER CALLBACKS
    281           */
    282          
    283          /*********************************************************************
    284           * PUBLIC FUNCTIONS
    285           */
    286          
    287          /*********************************************************************
    288           * @fn      SampleApp_Init
    289           *
    290           * @brief   Initialization function for the Generic App Task.
    291           *          This is called during initialization and should contain
    292           *          any application specific initialization (ie. hardware
    293           *          initialization/setup, table initialization, power up
    294           *          notificaiton ... ).
    295           *
    296           * @param   task_id - the ID assigned by OSAL.  This ID should be
    297           *                    used to send messages and set timers.
    298           *
    299           * @return  none
    300           */

   \                                 In  segment BANKED_CODE, align 1, keep-with-next
    301          void SampleApp_Init( uint8 task_id )
   \                     SampleApp_Init:
    302          {
   \   000000   74F5         MOV     A,#-0xb
   \   000002   12....       LCALL   ?BANKED_ENTER_XDATA
   \   000005                ; Saved register size: 11
   \   000005                ; Auto size: 0
   \   000005   E9           MOV     A,R1
   \   000006   FE           MOV     R6,A
    303            SampleApp_TaskID = task_id; //任务ID
   \   000007   90....       MOV     DPTR,#SampleApp_TaskID
   \   00000A   F0           MOVX    @DPTR,A
    304            SampleApp_NwkState = DEV_INIT;//网络类型
   \   00000B   90....       MOV     DPTR,#SampleApp_NwkState
   \   00000E   7401         MOV     A,#0x1
   \   000010   F0           MOVX    @DPTR,A
    305            SampleApp_TransID = 0;// 设置发送数据的方式和目的地址,
   \   000011   90....       MOV     DPTR,#SampleApp_TransID
   \   000014   E4           CLR     A
   \   000015   F0           MOVX    @DPTR,A
    306            /*****串口初始化******/
    307            MT_UartInit ();
   \   000016                ; Setup parameters for call to function MT_UartInit
   \   000016   12....       LCALL   ??MT_UartInit?relay
    308            MT_UartRegisterTaskID(task_id);
   \   000019                ; Setup parameters for call to function MT_UartRegisterTaskID
   \   000019   EE           MOV     A,R6
   \   00001A   F9           MOV     R1,A
   \   00001B   12....       LCALL   ??MT_UartRegisterTaskID?relay
    309            /**************
    310            #ifndef DEV_COOR
    311              #ifdef DEBUG_STAGE
    312                #ifdef LIVING_ROOM
    313                 HalUARTWrite(0,"livingroom\n",11);
    314                #endif
    315                #ifdef BED_ROOM
    316                 HalUARTWrite(0,"bedroom\n",8);
    317                #endif
    318                #ifdef KIT_ROOM
    319                 HalUARTWrite(0,"kitroom\n",8);
    320                #endif
    321              #endif
    322            #endif
    323            */
    324            /******************终端设备各模块io初始化*******************/
    325            /*
    326            ***********************************************************/
    327          #ifndef DEV_COOR
    328              //灯 P0.4 输出
    329             #ifdef  DEV_LIGHT
    330                 P0SEL &= 0xef;//灯1配置I/O口  P0_4
    331                 P0DIR |= 0x10;//LIGHT1 输出
    332                 P0_4 = 0;
    333             #endif
    334           //窗帘 P0.0 输出  
    335             #ifdef DEV_CURTAIN
    336                P0SEL &= 0xfe;
    337                P0DIR |= 0x1;  //输出  
    338                P0_0 = 0;
    339             #endif
    340          #endif
    341          /************IO初始化结束**********************/
    342                
    343            // Device hardware initialization can be added here or in main() (Zmain.c).
    344            // If the hardware is application specific - add it here.
    345            // If the hardware is other parts of the device add it in main().
    346          
    347           #if defined ( BUILD_ALL_DEVICES )
    348            // The "Demo" target is setup to have BUILD_ALL_DEVICES and HOLD_AUTO_START
    349            // We are looking at a jumper (defined in SampleAppHw.c) to be jumpered
    350            // together - if they are - we will start up a coordinator. Otherwise,
    351            // the device will start as a router.
    352            if ( readCoordinatorJumper() )
    353              zgDeviceLogicalType = ZG_DEVICETYPE_COORDINATOR;
    354            else
    355              zgDeviceLogicalType = ZG_DEVICETYPE_ROUTER;
    356          #endif // BUILD_ALL_DEVICES
    357          
    358          #if defined ( HOLD_AUTO_START )
    359            // HOLD_AUTO_START is a compile option that will surpress ZDApp
    360            //  from starting the device and wait for the application to
    361            //  start the device.
    362            ZDOInitDevice(0);
    363          #endif
    364          
    365            // Setup for the periodic message's destination address
    366            // Broadcast to everyone
    367            SampleApp_Periodic_DstAddr.addrMode = (afAddrMode_t)AddrBroadcast;
   \   00001E   90....       MOV     DPTR,#SampleApp_Periodic_DstAddr + 8
   \   000021   740F         MOV     A,#0xf
   \   000023   F0           MOVX    @DPTR,A
    368            SampleApp_Periodic_DstAddr.endPoint = SAMPLEAPP_ENDPOINT;
   \   000024   A3           INC     DPTR
   \   000025   7414         MOV     A,#0x14
   \   000027   F0           MOVX    @DPTR,A
    369            SampleApp_Periodic_DstAddr.addr.shortAddr = 0xFFFF;
   \   000028   90....       MOV     DPTR,#SampleApp_Periodic_DstAddr
   \   00002B   74FF         MOV     A,#-0x1
   \   00002D   F0           MOVX    @DPTR,A
   \   00002E   A3           INC     DPTR
   \   00002F   F0           MOVX    @DPTR,A
    370          
    371            // Setup for the flash command's destination address - Group 1
    372            SampleApp_Flash_DstAddr.addrMode = (afAddrMode_t)afAddrGroup;
   \   000030   90....       MOV     DPTR,#SampleApp_Flash_DstAddr + 8
   \   000033   7401         MOV     A,#0x1
   \   000035   F0           MOVX    @DPTR,A
    373            SampleApp_Flash_DstAddr.endPoint = SAMPLEAPP_ENDPOINT;
   \   000036   A3           INC     DPTR
   \   000037   7414         MOV     A,#0x14
   \   000039   F0           MOVX    @DPTR,A
    374            SampleApp_Flash_DstAddr.addr.shortAddr = SAMPLEAPP_FLASH_GROUP;
   \   00003A   90....       MOV     DPTR,#SampleApp_Flash_DstAddr
   \   00003D   7401         MOV     A,#0x1
   \   00003F   F0           MOVX    @DPTR,A
   \   000040   A3           INC     DPTR
   \   000041   E4           CLR     A
   \   000042   F0           MOVX    @DPTR,A
    375          /***设定点对点的地址方案****/
    376            SampleApp_Point_to_Point_DstAddr.addrMode = (afAddrMode_t)Addr16Bit;
   \   000043   90....       MOV     DPTR,#SampleApp_Point_to_Point_DstAddr + 8
   \   000046   7402         MOV     A,#0x2
   \   000048   F0           MOVX    @DPTR,A
    377            SampleApp_Point_to_Point_DstAddr.endPoint = SAMPLEAPP_ENDPOINT;
   \   000049   A3           INC     DPTR
   \   00004A   7414         MOV     A,#0x14
   \   00004C   F0           MOVX    @DPTR,A
    378            SampleApp_Point_to_Point_DstAddr.addr.shortAddr = 0xffff;//数据从终端发给协调者
   \   00004D   90....       MOV     DPTR,#SampleApp_Point_to_Point_DstAddr
   \   000050   74FF         MOV     A,#-0x1
   \   000052   F0           MOVX    @DPTR,A
   \   000053   A3           INC     DPTR
   \   000054   F0           MOVX    @DPTR,A
    379          /********************************/
    380            // Fill out the endpoint description.
    381            SampleApp_epDesc.endPoint = SAMPLEAPP_ENDPOINT;
   \   000055   90....       MOV     DPTR,#SampleApp_epDesc
   \   000058   7414         MOV     A,#0x14
   \   00005A   F0           MOVX    @DPTR,A
    382            SampleApp_epDesc.task_id = &SampleApp_TaskID;
   \   00005B   A3           INC     DPTR
   \   00005C   74..         MOV     A,#SampleApp_TaskID & 0xff
   \   00005E   F0           MOVX    @DPTR,A
   \   00005F   A3           INC     DPTR
   \   000060   74..         MOV     A,#(SampleApp_TaskID >> 8) & 0xff
   \   000062   F0           MOVX    @DPTR,A
    383            SampleApp_epDesc.simpleDesc
    384                      = (SimpleDescriptionFormat_t *)&SampleApp_SimpleDesc;
   \   000063   A3           INC     DPTR
   \   000064   74..         MOV     A,#SampleApp_SimpleDesc & 0xff
   \   000066   F0           MOVX    @DPTR,A
   \   000067   A3           INC     DPTR
   \   000068   74..         MOV     A,#(SampleApp_SimpleDesc >> 8) & 0xff
   \   00006A   F0           MOVX    @DPTR,A
    385            SampleApp_epDesc.latencyReq = noLatencyReqs;
   \   00006B   A3           INC     DPTR
   \   00006C   E4           CLR     A
   \   00006D   F0           MOVX    @DPTR,A
    386          
    387            // Register the endpoint description with the AF
    388            afRegister( &SampleApp_epDesc );
   \   00006E                ; Setup parameters for call to function afRegister
   \   00006E   7A..         MOV     R2,#SampleApp_epDesc & 0xff
   \   000070   7B..         MOV     R3,#(SampleApp_epDesc >> 8) & 0xff
   \   000072   12....       LCALL   ??afRegister?relay
    389          
    390            // Register for all key events - This app will handle all key events
    391            RegisterForKeys( SampleApp_TaskID );
   \   000075                ; Setup parameters for call to function RegisterForKeys
   \   000075   90....       MOV     DPTR,#SampleApp_TaskID
   \   000078   E0           MOVX    A,@DPTR
   \   000079   F9           MOV     R1,A
   \   00007A   12....       LCALL   ??RegisterForKeys?relay
    392          
    393            // By default, all devices start out in Group 1
    394            SampleApp_Group.ID = 0x0001;
   \   00007D   90....       MOV     DPTR,#SampleApp_Group
   \   000080   7401         MOV     A,#0x1
   \   000082   F0           MOVX    @DPTR,A
   \   000083   A3           INC     DPTR
   \   000084   E4           CLR     A
   \   000085   F0           MOVX    @DPTR,A
    395            osal_memcpy( SampleApp_Group.name, "Group 1", 7  );
   \   000086                ; Setup parameters for call to function osal_memcpy
   \   000086   75....       MOV     ?V0 + 0,#`?<Constant "Group 1">` & 0xff
   \   000089   75....       MOV     ?V0 + 1,#(`?<Constant "Group 1">` >> 8) & 0xff
   \   00008C   F5..         MOV     ?V0 + 2,A
   \   00008E   78..         MOV     R0,#?V0 + 0
   \   000090   12....       LCALL   ?PUSH_XSTACK_I_THREE
   \   000093   7C07         MOV     R4,#0x7
   \   000095   7D00         MOV     R5,#0x0
   \   000097   7A..         MOV     R2,#(SampleApp_Group + 2) & 0xff
   \   000099   7B..         MOV     R3,#((SampleApp_Group + 2) >> 8) & 0xff
   \   00009B   12....       LCALL   ??osal_memcpy?relay
   \   00009E   7403         MOV     A,#0x3
   \   0000A0   12....       LCALL   ?DEALLOC_XSTACK8
    396            aps_AddGroup( SAMPLEAPP_ENDPOINT, &SampleApp_Group );
   \   0000A3                ; Setup parameters for call to function aps_AddGroup
   \   0000A3   7A..         MOV     R2,#SampleApp_Group & 0xff
   \   0000A5   7B..         MOV     R3,#(SampleApp_Group >> 8) & 0xff
   \   0000A7   7914         MOV     R1,#0x14
   \   0000A9   12....       LCALL   ??aps_AddGroup?relay
    397          
    398          #if defined ( LCD_SUPPORTED )
    399            HalLcdWriteString( "SampleApp", HAL_LCD_LINE_1 );
   \   0000AC                ; Setup parameters for call to function HalLcdWriteString
   \   0000AC   7901         MOV     R1,#0x1
   \   0000AE   7A..         MOV     R2,#`?<Constant "SampleApp">` & 0xff
   \   0000B0   7B..         MOV     R3,#(`?<Constant "SampleApp">` >> 8) & 0xff
   \   0000B2   12....       LCALL   ??HalLcdWriteString?relay
    400          #endif
    401          }
   \   0000B5   7F03         MOV     R7,#0x3
   \   0000B7   02....       LJMP    ?BANKED_LEAVE_XDATA
    402          
    403          /*********************************************************************
    404           * @fn      SampleApp_ProcessEvent 任务处理函数。任务处理函数是对任务发生后的事件进行处理
    405           *
    406           * @brief   Generic Application Task event processor.  This function
    407           *          is called to process all events for the task.  Events
    408           *          include timers, messages and any other user defined events.
    409           *
    410           * @param   task_id  - The OSAL assigned task ID.
    411           * @param   events - events to process.  This is a bit map and can
    412           *                   contain more than one event.
    413           *
    414           * @return  none
    415           */

   \                                 In  segment BANKED_CODE, align 1, keep-with-next
    416          uint16 SampleApp_ProcessEvent( uint8 task_id, uint16 events )//发送处理函数
   \                     SampleApp_ProcessEvent:
    417          {
   \   000000   74F4         MOV     A,#-0xc
   \   000002   12....       LCALL   ?BANKED_ENTER_XDATA
   \   000005                ; Saved register size: 12
   \   000005                ; Auto size: 0
   \   000005   8A..         MOV     ?V0 + 0,R2
   \   000007   8B..         MOV     ?V0 + 1,R3
    418            afIncomingMSGPacket_t *MSGpkt;
    419            #ifndef DEV_COOR//存放加入网络的数据
    420               uint8 buffer[4];
    421            #endif
    422            (void)task_id;  // Intentionally unreferenced parameter
    423          
    424            if ( events & SYS_EVENT_MSG )
   \   000009   EB           MOV     A,R3
   \   00000A   5480         ANL     A,#0x80
   \   00000C   6050         JZ      ??SampleApp_ProcessEvent_0
    425            {
    426              MSGpkt = (afIncomingMSGPacket_t *)osal_msg_receive( SampleApp_TaskID );
   \   00000E                ; Setup parameters for call to function osal_msg_receive
   \   00000E   800D         SJMP    ??SampleApp_ProcessEvent_1
    427              while ( MSGpkt )
    428              {
    429                switch ( MSGpkt->hdr.event )
    430                {
    431          #ifdef DEV_COOR
    432                  case CMD_SERIAL_MSG://串口收到数据后由MT_UART层传递过来的数据，用网蜂方法接收，编译时不定义MT相关内容，
    433                     SampleApp_SerialCMD((mtOSALSerialData_t *)MSGpkt);//串口收到信息后，事件号 CMD_SERIAL_MSG 就会被登记，便进入 CMD_SERIAL_MSG: 执行 SampleApp_SerialCMD((mtOSALSerialData_t *)MSGpkt);
    434                     /***上面这个函数是来自电脑的串口数据处理函数***/
    435                     break;
    436          #endif
    437                      
    438                  // Received when a key is pressed
    439                  case KEY_CHANGE:
    440                    //按键发送改变
    441                    SampleApp_HandleKeys( ((keyChange_t *)MSGpkt)->state, ((keyChange_t *)MSGpkt)->keys );
    442                    break;
    443          
    444                  // Received when a messages is received (OTA) for this endpoint
    445                  case AF_INCOMING_MSG_CMD:
    446                    SampleApp_MessageMSGCB( MSGpkt );
    447                    break;
    448          
    449                  // Received whenever the device changes state in the network
    450                  case ZDO_STATE_CHANGE://网络出现状态机发生变化
    451                    SampleApp_NwkState = (devStates_t)(MSGpkt->hdr.status);
   \                     ??SampleApp_ProcessEvent_2:
   \   000010   A3           INC     DPTR
   \   000011   E0           MOVX    A,@DPTR
   \   000012   90....       MOV     DPTR,#SampleApp_NwkState
   \   000015   F0           MOVX    @DPTR,A
    452                    if ( //(SampleApp_NwkState == DEV_ZB_COORD)||//协调者不给自己点播
    453                         //(SampleApp_NwkState == DEV_ROUTER)|| //协调者不给路由点播
    454                        (SampleApp_NwkState == DEV_END_DEVICE))
    455                    {
    456           #ifndef DEV_COOR//终端向协调器发送加入网络的数据包 数据包格式为    m 房间号（ROOM_NUM） 设备号（DEV_NUM） g
    457                      buffer[0] = 'm';
    458                      buffer[1] = ROOM_NUM;//          
    459                      buffer[2] = DEV_NUM;
    460                      buffer[3] = 'g';
    461                      SampleApp_Point_to_Point_DstAddr.addr.shortAddr = 0x0000;
    462                      if ( AF_DataRequest( &SampleApp_Point_to_Point_DstAddr,
    463                                 &SampleApp_epDesc,
    464                                 SAMPLEAPP_ADDNET_CLUSTERID,
    465                                 4,
    466                                 buffer,
    467                                 &SampleApp_TransID,
    468                                 AF_DISCV_ROUTE | AF_ACK_REQUEST,
    469                                 AF_DEFAULT_RADIUS ) == afStatus_SUCCESS )
    470                             {
    471                                #ifdef DEBUG_STAGE
    472                                         HalUARTWrite(0,"Init EndPoint\n\r",sizeof("Init EndPoint\n\r"));
    473                                       //HalLedSet(LED1,LED_ON);
    474                                #endif 
    475                             }
    476                          else
    477                            {
    478                            // Error occurred in request to send.
    479                             }
    480                      /*****原函数被注释
    481                      // Start sending the periodic message in a regular interval.
    482                      osal_start_timerEx( SampleApp_TaskID,
    483                                        SAMPLEAPP_SEND_PERIODIC_MSG_EVT,
    484                                        SAMPLEAPP_SEND_PERIODIC_MSG_TIMEOUT );
    485                      */
    486          #endif
    487                    }
    488                    else
    489                    {
    490                      // Device is no longer in the network
    491                    }
    492                    break;
    493          
    494                  default:
    495                    break;
    496                }
    497          
    498                // Release the memory
    499                osal_msg_deallocate( (uint8 *)MSGpkt );
   \                     ??SampleApp_ProcessEvent_3:
   \   000016                ; Setup parameters for call to function osal_msg_deallocate
   \   000016   EE           MOV     A,R6
   \   000017   FA           MOV     R2,A
   \   000018   EF           MOV     A,R7
   \   000019   FB           MOV     R3,A
   \   00001A   12....       LCALL   ??osal_msg_deallocate?relay
    500          
    501                // Next - if one is available
    502                MSGpkt = (afIncomingMSGPacket_t *)osal_msg_receive( SampleApp_TaskID );
   \   00001D                ; Setup parameters for call to function osal_msg_receive
   \                     ??SampleApp_ProcessEvent_1:
   \   00001D   90....       MOV     DPTR,#SampleApp_TaskID
   \   000020   E0           MOVX    A,@DPTR
   \   000021   F9           MOV     R1,A
   \   000022   12....       LCALL   ??osal_msg_receive?relay
   \   000025   8A..         MOV     ?V0 + 2,R2
   \   000027   8B..         MOV     ?V0 + 3,R3
   \   000029   AE..         MOV     R6,?V0 + 2
   \   00002B   AF..         MOV     R7,?V0 + 3
   \   00002D   EE           MOV     A,R6
   \   00002E   4F           ORL     A,R7
   \   00002F   6024         JZ      ??SampleApp_ProcessEvent_4
   \   000031   8E82         MOV     DPL,R6
   \   000033   8F83         MOV     DPH,R7
   \   000035   E0           MOVX    A,@DPTR
   \   000036   14           DEC     A
   \   000037   600A         JZ      ??SampleApp_ProcessEvent_5
   \   000039   24E7         ADD     A,#-0x19
   \   00003B   600F         JZ      ??SampleApp_ProcessEvent_6
   \   00003D   2449         ADD     A,#0x49
   \   00003F   60CF         JZ      ??SampleApp_ProcessEvent_2
   \   000041   80D3         SJMP    ??SampleApp_ProcessEvent_3
   \                     ??SampleApp_ProcessEvent_5:
   \   000043                ; Setup parameters for call to function SampleApp_SerialCMD
   \   000043   EE           MOV     A,R6
   \   000044   FA           MOV     R2,A
   \   000045   EF           MOV     A,R7
   \   000046   FB           MOV     R3,A
   \   000047   12....       LCALL   ??SampleApp_SerialCMD?relay
   \   00004A   80CA         SJMP    ??SampleApp_ProcessEvent_3
   \                     ??SampleApp_ProcessEvent_6:
   \   00004C                ; Setup parameters for call to function SampleApp_MessageMSGCB
   \   00004C   EE           MOV     A,R6
   \   00004D   FA           MOV     R2,A
   \   00004E   EF           MOV     A,R7
   \   00004F   FB           MOV     R3,A
   \   000050   12....       LCALL   ??SampleApp_MessageMSGCB?relay
   \   000053   80C1         SJMP    ??SampleApp_ProcessEvent_3
    503              }
    504          
    505              // return unprocessed events
    506              return (events ^ SYS_EVENT_MSG);
   \                     ??SampleApp_ProcessEvent_4:
   \   000055   AA..         MOV     R2,?V0 + 0
   \   000057   E5..         MOV     A,?V0 + 1
   \   000059   6480         XRL     A,#0x80
   \   00005B   FB           MOV     R3,A
   \   00005C   8029         SJMP    ??SampleApp_ProcessEvent_7
    507            }
    508          
    509            // Send a message out - This event is generated by a timer
    510            //  (setup in SampleApp_Init()).
    511            if ( events & SAMPLEAPP_SEND_PERIODIC_MSG_EVT )//这里需要做一下解释？？？加入网络后一直在执行这个状态
   \                     ??SampleApp_ProcessEvent_0:
   \   00005E   EA           MOV     A,R2
   \   00005F   A2E0         MOV     C,0xE0 /* A   */.0
   \   000061   5020         JNC     ??SampleApp_ProcessEvent_8
    512            {
    513              // Send the periodic message
    514              SampleApp_SendPeriodicMessage();
    515              /**********修改使用的函数********/
    516              //SampleApp_PointToPointMessage();
    517              /******/
    518              // Setup to send message again in normal period (+ a little jitter)
    519              osal_start_timerEx( SampleApp_TaskID, SAMPLEAPP_SEND_PERIODIC_MSG_EVT,
    520                  (SAMPLEAPP_SEND_PERIODIC_MSG_TIMEOUT + (osal_rand() & 0x00FF)) );
   \   000063                ; Setup parameters for call to function osal_rand
   \   000063   12....       LCALL   ??osal_rand?relay
   \   000066                ; Setup parameters for call to function osal_start_timerEx
   \   000066   EA           MOV     A,R2
   \   000067   2488         ADD     A,#-0x78
   \   000069   FC           MOV     R4,A
   \   00006A   E4           CLR     A
   \   00006B   3413         ADDC    A,#0x13
   \   00006D   FD           MOV     R5,A
   \   00006E   7A01         MOV     R2,#0x1
   \   000070   7B00         MOV     R3,#0x0
   \   000072   90....       MOV     DPTR,#SampleApp_TaskID
   \   000075   E0           MOVX    A,@DPTR
   \   000076   F9           MOV     R1,A
   \   000077   12....       LCALL   ??osal_start_timerEx?relay
    521          
    522              // return unprocessed events
    523              return (events ^ SAMPLEAPP_SEND_PERIODIC_MSG_EVT);
   \   00007A   E5..         MOV     A,?V0 + 0
   \   00007C   6401         XRL     A,#0x1
   \   00007E   FA           MOV     R2,A
   \   00007F   AB..         MOV     R3,?V0 + 1
   \   000081   8004         SJMP    ??SampleApp_ProcessEvent_7
    524            }
    525          
    526            // Discard unknown events
    527            return 0;
   \                     ??SampleApp_ProcessEvent_8:
   \   000083   7A00         MOV     R2,#0x0
   \   000085   7B00         MOV     R3,#0x0
   \                     ??SampleApp_ProcessEvent_7:
   \   000087                REQUIRE ?Subroutine0
   \   000087                ; // Fall through to label ?Subroutine0
    528          }

   \                                 In  segment BANKED_CODE, align 1, keep-with-next
   \                     ?Subroutine0:
   \   000000   7F04         MOV     R7,#0x4
   \   000002   02....       LJMP    ?BANKED_LEAVE_XDATA
    529          
    530          /*********************************************************************
    531           * Event Generation Functions
    532           */
    533          /*********************************************************************
    534           * @fn      SampleApp_HandleKeys
    535           *
    536           * @brief   Handles all key events for this device.所有按键处理函数
    537           *
    538           * @param   shift - true if in shift/alt.
    539           * @param   keys - bit field for key events. Valid entries:
    540           *                 HAL_KEY_SW_2
    541           *                 HAL_KEY_SW_1
    542           *
    543           * @return  none
    544           */

   \                                 In  segment BANKED_CODE, align 1, keep-with-next
    545          void SampleApp_HandleKeys( uint8 shift, uint8 keys )
   \                     SampleApp_HandleKeys:
    546          {
   \   000000                ; Saved register size: 0
   \   000000                ; Auto size: 0
    547            (void)shift;  // Intentionally unreferenced parameter
    548            
    549            if ( keys & HAL_KEY_SW_1 )
    550            {
    551              /* This key sends the Flash Command is sent to Group 1.
    552               * This device will not receive the Flash Command from this
    553               * device (even if it belongs to group 1).
    554               */
    555              /*
    556               #ifdef DEV_DOORBELL
    557                 DoorBellPressed =1;
    558               #endif
    559              */
    560              //HalLedBlink(HAL_LED_1,2,50,500);//
    561             // SampleApp_SendFlashMessage( SAMPLEAPP_FLASH_DURATION );
    562            }
    563          
    564            if ( keys & HAL_KEY_SW_2 )
    565            {
    566              /* The Flashr Command is sent to Group 1.
    567               * This key toggles this device in and out of group 1.
    568               * If this device doesn't belong to group 1, this application
    569               * will not receive the Flash command sent to group 1.
    570               */
    571              /*
    572              aps_Group_t *grp;
    573              grp = aps_FindGroup( SAMPLEAPP_ENDPOINT, SAMPLEAPP_FLASH_GROUP );
    574              if ( grp )
    575              {
    576                // Remove from the group
    577                aps_RemoveGroup( SAMPLEAPP_ENDPOINT, SAMPLEAPP_FLASH_GROUP );
    578              }
    579              else
    580              {
    581                // Add to the flash group
    582                aps_AddGroup( SAMPLEAPP_ENDPOINT, &SampleApp_Group );
    583              }
    584            }
    585              */
    586            }
    587          }
   \   000000   02....       LJMP    ?BRET
    588          
    589          /*********************************************************************
    590           * LOCAL FUNCTIONS
    591           */
    592          
    593          /*********************************************************************
    594           * @fn      SampleApp_MessageMSGCB接收处理函数。
    595           *
    596           * @brief   Data message processor callback.  This function processes
    597           *          any incoming data - probably from other devices.  So, based
    598           *          on cluster ID, perform the intended action.
    599           *
    600           * @param   none
    601           *
    602           * @return  none
    603           */

   \                                 In  segment BANKED_CODE, align 1, keep-with-next
    604          void SampleApp_MessageMSGCB( afIncomingMSGPacket_t *pkt )//接受数据处理函数
   \                     SampleApp_MessageMSGCB:
    605          {
   \   000000   74F4         MOV     A,#-0xc
   \   000002   12....       LCALL   ?BANKED_ENTER_XDATA
   \   000005                ; Saved register size: 12
   \   000005                ; Auto size: 4
   \   000005   74FC         MOV     A,#-0x4
   \   000007   12....       LCALL   ?ALLOC_XSTACK8
   \   00000A   EA           MOV     A,R2
   \   00000B   FE           MOV     R6,A
   \   00000C   EB           MOV     A,R3
   \   00000D   FF           MOV     R7,A
    606           // uint16 flashTime;
    607            uint8 *str = NULL; 
    608            #ifndef DEV_COOR
    609               uint8 reply_buf[CMD_LEN]; //reply_buf[7]
    610               #ifdef DEBUG_STAGE
    611                 int i;
    612               #endif
    613            #endif
    614            #ifdef DEV_COOR
    615                uint8 buffer[4];//用于处理应答
    616                uint16 shortaddr;//用来存放短地址
    617            #endif
    618            str = pkt->cmd.Data;
   \   00000E   12....       LCALL   ?Subroutine4 & 0xFFFF
   \                     ??CrossCallReturnLabel_6:
   \   000011   F9           MOV     R1,A
   \   000012   E8           MOV     A,R0
   \   000013   FA           MOV     R2,A
   \   000014   E9           MOV     A,R1
   \   000015   FB           MOV     R3,A
    619            switch ( pkt->clusterId )
   \   000016   8E82         MOV     DPL,R6
   \   000018   8F83         MOV     DPH,R7
   \   00001A   A3           INC     DPTR
   \   00001B   A3           INC     DPTR
   \   00001C   A3           INC     DPTR
   \   00001D   A3           INC     DPTR
   \   00001E   E0           MOVX    A,@DPTR
   \   00001F   F5..         MOV     ?V0 + 0,A
   \   000021   A3           INC     DPTR
   \   000022   E0           MOVX    A,@DPTR
   \   000023   F5..         MOV     ?V0 + 1,A
   \   000025   78..         MOV     R0,#?V0 + 0
   \   000027   12....       LCALL   ?US_SWITCH_DENSE
   \                     `?<Jumptable for SampleApp_MessageMSGCB>_0`:
   \   00002A   0300         DW        3
   \   00002C   02           DB        2
   \   00002D   ....         DW        ??SampleApp_MessageMSGCB_0
   \   00002F   ....         DW        ??SampleApp_MessageMSGCB_1
   \   000031   ....         DW        ??SampleApp_MessageMSGCB_0
   \   000033   ....         DW        ??SampleApp_MessageMSGCB_2
    620            {
    621              /***自己添加的条件分支***/
    622              case SAMPLEAPP_POINT_TO_POINT_CLUSTERID:
    623                #ifndef DEV_COOR                         
    624                  //  HalLedSet(LED2,LED_ON);
    625                    #ifdef DEBUG_STAGE
    626                       for(i=0;i<CMD_LEN;i++)
    627                       HalUARTWrite(0,str+i,1 ); 
    628                    #endif 
    629                      if(str[CmdFlag] == FRAME_FLAG && pkt->srcAddr.addr.shortAddr == 0x0000)   //确认帧头和源地址 
    630                      {
    631                        reply_buf[CmdFlag] = FRAME_FLAG;//框架判断
    632                        switch(str[CmdDevType])
    633                        {
    634                          /************************灯******************/
    635                          #ifdef DEV_LIGHT
    636                            case CMD_DEV_LED:
    637                              if(str[CmdType] == CMD_TYPE_CONTROLREQUEST)//是否为控制
    638                               {
    639                                    switch(str[CmdCtrlType])//命令控制的类型
    640                                    {
    641                                          case CMD_CONTROL_OPEN:
    642                                                        {
    643                                                            reply_buf[CmdCtrlValue] = 1; 
    644                                                            switch(str[CmdDevId])
    645                                                            {
    646                                                               case 0:
    647                                                                  DEV_LIGHT1_OPEN()
    648                                                                  break;
    649                                                               default:
    650                                                                      reply_buf[CmdCtrlValue] = ERROR_FLAG;
    651                                                            }
    652                                                        }
    653                                         break;
    654                                         case CMD_CONTROL_CLOSE:
    655                                                      {
    656                                                         reply_buf[CmdCtrlValue] = 0; 
    657                                                         switch(str[CmdDevId])
    658                                                            {
    659                                                               case 0:
    660                                                                  DEV_LIGHT1_CLOSE()
    661                                                                  break;
    662                                                               default:
    663                                                                      reply_buf[CmdCtrlValue] = ERROR_FLAG;
    664                                                            }
    665                                                      }
    666                                         break;
    667                                         default:
    668                                                      reply_buf[CmdCtrlType] = ERROR_FLAG;   
    669                                    }
    670                                    reply_buf[CmdType] = CMD_TYPE_CONTROLRESPONSE; 
    671                               }                  
    672                              else if(str[CmdType] == CMD_TYPE_CONTROLREQUEST && str[CmdCtrlType] == CMD_CONTROL_READ)//查询
    673                              {
    674                                switch(str[CmdDevId])
    675                                {
    676                                  case 0:
    677                                      if(DEV_LIGHT1_BIT)
    678                                         reply_buf[CmdCtrlValue] = 1;
    679                                      else
    680                                         reply_buf[CmdCtrlValue] = 0;
    681                                  break;
    682                                  default:
    683                                       reply_buf[CmdCtrlValue] = ERROR_FLAG;  
    684                                }
    685                                reply_buf[CmdType] = CMD_TYPE_QUERYRESPONSE; 
    686                              }
    687                              reply_buf[CmdDevType] = CMD_DEV_LED;
    688                              reply_buf[CmdCtrlType] = str[CmdCtrlType];
    689                              reply_buf[CmdDevId] = str[CmdDevId];
    690                              reply_buf[CmdRoomId] = ROOM_NUM;
    691                              SampleApp_Point_to_Point_DstAddr.addr.shortAddr = 0x0000;
    692                              if ( AF_DataRequest( &SampleApp_Point_to_Point_DstAddr, &SampleApp_epDesc,
    693                                     SAMPLEAPP_POINT_TO_POINT_CLUSTERID,
    694                                     CMD_LEN,
    695                                     reply_buf,
    696                                     &SampleApp_TransID,
    697                                     AF_DISCV_ROUTE | AF_ACK_REQUEST,
    698                                     AF_DEFAULT_RADIUS ) == afStatus_SUCCESS )
    699                                {
    700                      
    701                                 }
    702                             else
    703                              {
    704                                    // Error occurred in request to send.
    705                               }
    706                            break;
    707                       #endif
    708                        default://没找到设备
    709                          reply_buf[CmdType] = CMD_TYPE_QUERYRESPONSE;
    710                          reply_buf[CmdCtrlType] = ERROR_FLAG;
    711                          reply_buf[CmdCtrlValue]= ERROR_FLAG;
    712                          reply_buf[CmdRoomId] = ROOM_NUM;
    713                          reply_buf[CmdDevType] = str[CmdDevType];
    714                          reply_buf[CmdDevId] = str[CmdDevId];
    715                          SampleApp_Point_to_Point_DstAddr.addr.shortAddr = 0x0000;
    716                              if ( AF_DataRequest( &SampleApp_Point_to_Point_DstAddr, &SampleApp_epDesc,
    717                                     SAMPLEAPP_POINT_TO_POINT_CLUSTERID,
    718                                     CMD_LEN,
    719                                     reply_buf,
    720                                     &SampleApp_TransID,
    721                                     AF_DISCV_ROUTE | AF_ACK_REQUEST,
    722                                     AF_DEFAULT_RADIUS ) == afStatus_SUCCESS )
    723                                {
    724                      
    725                                 }
    726                             else
    727                              {
    728                                    // Error occurred in request to send.
    729                               }
    730                            break;
    731                        }         
    732                      }
    733                #else//协调器将由终端返回的回应信息包发送给上位机
    734                if(str[CmdType] == CMD_TYPE_QUERYRESPONSE || str[CmdType] == CMD_TYPE_CONTROLRESPONSE)
   \                     ??SampleApp_MessageMSGCB_1:
   \   000035   8A82         MOV     DPL,R2
   \   000037   8B83         MOV     DPH,R3
   \   000039   A3           INC     DPTR
   \   00003A   E0           MOVX    A,@DPTR
   \   00003B   6402         XRL     A,#0x2
   \   00003D   600D         JZ      ??SampleApp_MessageMSGCB_3
   \   00003F   8A82         MOV     DPL,R2
   \   000041   8B83         MOV     DPH,R3
   \   000043   A3           INC     DPTR
   \   000044   E0           MOVX    A,@DPTR
   \   000045   6404         XRL     A,#0x4
   \   000047   6003         JZ      $+5
   \   000049   02....       LJMP    ??SampleApp_MessageMSGCB_0 & 0xFFFF
    735                {
    736                  HalUARTWrite(0,str,CMD_LEN);
   \                     ??SampleApp_MessageMSGCB_3:
   \   00004C                ; Setup parameters for call to function HalUARTWrite
   \   00004C   7C07         MOV     R4,#0x7
   \   00004E   7D00         MOV     R5,#0x0
   \   000050   7900         MOV     R1,#0x0
   \   000052   12....       LCALL   ??HalUARTWrite?relay
   \   000055   02....       LJMP    ??SampleApp_MessageMSGCB_0 & 0xFFFF
    737                }      
    738                #endif
    739              break;
    740              /*************************/
    741              case SAMPLEAPP_ADDNET_CLUSTERID://入网处理
    742                #ifdef DEV_COOR
    743                    if(pkt->cmd.Data[0]=='m' && pkt->cmd.Data[3]=='g' && pkt->srcAddr.addr.shortAddr != 0)
   \                     ??SampleApp_MessageMSGCB_2:
   \   000058   12....       LCALL   ?Subroutine4 & 0xFFFF
   \                     ??CrossCallReturnLabel_7:
   \   00005B   F583         MOV     DPH,A
   \   00005D   8882         MOV     DPL,R0
   \   00005F   E0           MOVX    A,@DPTR
   \   000060   646D         XRL     A,#0x6d
   \   000062   6003         JZ      $+5
   \   000064   02....       LJMP    ??SampleApp_MessageMSGCB_0 & 0xFFFF
   \   000067   12....       LCALL   ?Subroutine11 & 0xFFFF
   \                     ??CrossCallReturnLabel_20:
   \   00006A   A3           INC     DPTR
   \   00006B   E0           MOVX    A,@DPTR
   \   00006C   F583         MOV     DPH,A
   \   00006E   8882         MOV     DPL,R0
   \   000070   A3           INC     DPTR
   \   000071   A3           INC     DPTR
   \   000072   A3           INC     DPTR
   \   000073   E0           MOVX    A,@DPTR
   \   000074   6467         XRL     A,#0x67
   \   000076   6003         JZ      $+5
   \   000078   02....       LJMP    ??SampleApp_MessageMSGCB_0 & 0xFFFF
   \   00007B   8E82         MOV     DPL,R6
   \   00007D   8F83         MOV     DPH,R7
   \   00007F   A3           INC     DPTR
   \   000080   A3           INC     DPTR
   \   000081   A3           INC     DPTR
   \   000082   A3           INC     DPTR
   \   000083   A3           INC     DPTR
   \   000084   A3           INC     DPTR
   \   000085   12....       LCALL   ?Subroutine12 & 0xFFFF
   \                     ??CrossCallReturnLabel_22:
   \   000088   E8           MOV     A,R0
   \   000089   49           ORL     A,R1
   \   00008A   7003         JNZ     $+5
   \   00008C   02....       LJMP    ??SampleApp_MessageMSGCB_0 & 0xFFFF
    744                    {
    745                      HalLedSet(LED1,LED_ON);//协调者led1 亮
   \   00008F                ; Setup parameters for call to function HalLedSet
   \   00008F   7A01         MOV     R2,#0x1
   \   000091   7901         MOV     R1,#0x1
   \   000093   12....       LCALL   ??HalLedSet?relay
    746                      shortaddr = pkt->srcAddr.addr.shortAddr;//把收到的终端的地址保存
   \   000096   8E82         MOV     DPL,R6
   \   000098   8F83         MOV     DPH,R7
   \   00009A   A3           INC     DPTR
   \   00009B   A3           INC     DPTR
   \   00009C   A3           INC     DPTR
   \   00009D   A3           INC     DPTR
   \   00009E   A3           INC     DPTR
   \   00009F   A3           INC     DPTR
   \   0000A0   E0           MOVX    A,@DPTR
   \   0000A1   F5..         MOV     ?V0 + 0,A
   \   0000A3   A3           INC     DPTR
   \   0000A4   E0           MOVX    A,@DPTR
   \   0000A5   F5..         MOV     ?V0 + 1,A
    747                      Routing_Table[pkt->cmd.Data[1]][pkt->cmd.Data[2]] = shortaddr;  //对应的房间设备的路由表建立                    
   \   0000A7   EE           MOV     A,R6
   \   0000A8   2422         ADD     A,#0x22
   \   0000AA   FE           MOV     R6,A
   \   0000AB   EF           MOV     A,R7
   \   0000AC   3400         ADDC    A,#0x0
   \   0000AE   FF           MOV     R7,A
   \   0000AF   8E82         MOV     DPL,R6
   \   0000B1   8F83         MOV     DPH,R7
   \   0000B3   12....       LCALL   ?Subroutine6 & 0xFFFF
   \                     ??CrossCallReturnLabel_10:
   \   0000B6   E582         MOV     A,DPL
   \   0000B8   2402         ADD     A,#0x2
   \   0000BA   08           INC     R0
   \   0000BB   08           INC     R0
   \   0000BC   E583         MOV     A,DPH
   \   0000BE   3400         ADDC    A,#0x0
   \   0000C0   F9           MOV     R1,A
   \   0000C1   E8           MOV     A,R0
   \   0000C2   FA           MOV     R2,A
   \   0000C3   E9           MOV     A,R1
   \   0000C4   FB           MOV     R3,A
   \   0000C5   A3           INC     DPTR
   \   0000C6   A882         MOV     R0,DPL
   \   0000C8   A983         MOV     R1,DPH
   \   0000CA   8A82         MOV     DPL,R2
   \   0000CC   8B83         MOV     DPH,R3
   \   0000CE   E0           MOVX    A,@DPTR
   \   0000CF   C3           CLR     C
   \   0000D0   33           RLC     A
   \   0000D1   FC           MOV     R4,A
   \   0000D2   E4           CLR     A
   \   0000D3   33           RLC     A
   \   0000D4   FD           MOV     R5,A
   \   0000D5   8882         MOV     DPL,R0
   \   0000D7   8983         MOV     DPH,R1
   \   0000D9   E0           MOVX    A,@DPTR
   \   0000DA   33           RLC     A
   \   0000DB   F5..         MOV     ?V0 + 2,A
   \   0000DD   E4           CLR     A
   \   0000DE   33           RLC     A
   \   0000DF   F5..         MOV     ?V0 + 3,A
   \   0000E1   74..         MOV     A,#Routing_Table & 0xff
   \   0000E3   25..         ADD     A,?V0 + 2
   \   0000E5   F5..         MOV     ?V0 + 2,A
   \   0000E7   74..         MOV     A,#(Routing_Table >> 8) & 0xff
   \   0000E9   35..         ADDC    A,?V0 + 3
   \   0000EB   F5..         MOV     ?V0 + 3,A
   \   0000ED   E5..         MOV     A,?V0 + 2
   \   0000EF   2C           ADD     A,R4
   \   0000F0   F582         MOV     DPL,A
   \   0000F2   E5..         MOV     A,?V0 + 3
   \   0000F4   3D           ADDC    A,R5
   \   0000F5   F583         MOV     DPH,A
   \   0000F7   E5..         MOV     A,?V0 + 0
   \   0000F9   F0           MOVX    @DPTR,A
   \   0000FA   A3           INC     DPTR
   \   0000FB   E5..         MOV     A,?V0 + 1
   \   0000FD   F0           MOVX    @DPTR,A
    748                      #ifdef DEBUG_STAGE 
    749                               HalUARTWrite(0,&asc_16[Routing_Table[pkt->cmd.Data[1]][pkt->cmd.Data[2]]/4096],1);
   \   0000FE                ; Setup parameters for call to function HalUARTWrite
   \   0000FE   7C01         MOV     R4,#0x1
   \   000100   7D00         MOV     R5,#0x0
   \   000102   8A82         MOV     DPL,R2
   \   000104   8B83         MOV     DPH,R3
   \   000106   12....       LCALL   ?Subroutine5 & 0xFFFF
   \                     ??CrossCallReturnLabel_8:
   \   000109   12....       LCALL   ?Subroutine3 & 0xFFFF
   \                     ??CrossCallReturnLabel_4:
   \   00010C   E0           MOVX    A,@DPTR
   \   00010D   F5..         MOV     ?V0 + 2,A
   \   00010F   A3           INC     DPTR
   \   000110   E0           MOVX    A,@DPTR
   \   000111   F5..         MOV     ?V0 + 3,A
   \   000113   740C         MOV     A,#0xc
   \   000115   78..         MOV     R0,#?V0 + 2
   \   000117   12....       LCALL   ?US_SHR
   \   00011A   74..         MOV     A,#asc_16 & 0xff
   \   00011C   25..         ADD     A,?V0 + 2
   \   00011E   FA           MOV     R2,A
   \   00011F   74..         MOV     A,#(asc_16 >> 8) & 0xff
   \   000121   3400         ADDC    A,#0x0
   \   000123   FB           MOV     R3,A
   \   000124   7900         MOV     R1,#0x0
   \   000126   12....       LCALL   ?Subroutine9 & 0xFFFF
    750                               HalUARTWrite(0,&asc_16[Routing_Table[pkt->cmd.Data[1]][pkt->cmd.Data[2]]%4096/256],1);
   \                     ??CrossCallReturnLabel_16:
   \   000129   12....       LCALL   ?Subroutine5 & 0xFFFF
   \                     ??CrossCallReturnLabel_9:
   \   00012C   A3           INC     DPTR
   \   00012D   12....       LCALL   ?Subroutine3 & 0xFFFF
   \                     ??CrossCallReturnLabel_5:
   \   000130   A3           INC     DPTR
   \   000131   E0           MOVX    A,@DPTR
   \   000132   F9           MOV     R1,A
   \   000133   E4           CLR     A
   \   000134   C9           XCH     A,R1
   \   000135   12....       LCALL   ?Subroutine7 & 0xFFFF
   \                     ??CrossCallReturnLabel_12:
   \   000138   12....       LCALL   ?Subroutine1 & 0xFFFF
    751                               HalUARTWrite(0,&asc_16[Routing_Table[pkt->cmd.Data[1]][pkt->cmd.Data[2]]%256/16],1);
   \                     ??CrossCallReturnLabel_0:
   \   00013B   C4           SWAP    A
   \   00013C   12....       LCALL   ?Subroutine7 & 0xFFFF
   \                     ??CrossCallReturnLabel_13:
   \   00013F   7900         MOV     R1,#0x0
   \   000141   12....       LCALL   ?Subroutine1 & 0xFFFF
    752                               HalUARTWrite(0,&asc_16[Routing_Table[pkt->cmd.Data[1]][pkt->cmd.Data[2]]%16],1);
   \                     ??CrossCallReturnLabel_1:
   \   000144   540F         ANL     A,#0xf
   \   000146   F8           MOV     R0,A
   \   000147   7900         MOV     R1,#0x0
   \   000149   74..         MOV     A,#asc_16 & 0xff
   \   00014B   28           ADD     A,R0
   \   00014C   FA           MOV     R2,A
   \   00014D   74..         MOV     A,#(asc_16 >> 8) & 0xff
   \   00014F   3400         ADDC    A,#0x0
   \   000151   FB           MOV     R3,A
   \   000152   12....       LCALL   ??HalUARTWrite?relay
    753                      #endif           
    754                       buffer[0] = 'r';//进行回复          
   \   000155   85..82       MOV     DPL,?XSP + 0
   \   000158   85..83       MOV     DPH,?XSP + 1
   \   00015B   7472         MOV     A,#0x72
   \   00015D   F0           MOVX    @DPTR,A
    755                       buffer[1] = 0;
   \   00015E   7401         MOV     A,#0x1
   \   000160   12....       LCALL   ?XSTACK_DISP0_8
   \   000163   E4           CLR     A
   \   000164   F0           MOVX    @DPTR,A
    756                       buffer[2] = 0;
   \   000165   7402         MOV     A,#0x2
   \   000167   12....       LCALL   ?XSTACK_DISP0_8
   \   00016A   E4           CLR     A
   \   00016B   F0           MOVX    @DPTR,A
    757                       buffer[3] = 'a';
   \   00016C   7403         MOV     A,#0x3
   \   00016E   12....       LCALL   ?XSTACK_DISP0_8
   \   000171   7461         MOV     A,#0x61
   \   000173   F0           MOVX    @DPTR,A
    758                       SampleApp_Point_to_Point_DstAddr.addr.shortAddr = shortaddr;//并把应答信息发送给终端 入网成功
   \   000174   90....       MOV     DPTR,#SampleApp_Point_to_Point_DstAddr
   \   000177   E5..         MOV     A,?V0 + 0
   \   000179   F0           MOVX    @DPTR,A
   \   00017A   A3           INC     DPTR
   \   00017B   E5..         MOV     A,?V0 + 1
   \   00017D   F0           MOVX    @DPTR,A
    759                       if ( AF_DataRequest( &SampleApp_Point_to_Point_DstAddr, &SampleApp_epDesc,
    760                                     SAMPLEAPP_ADDNET_CLUSTERID,
    761                                     4,
    762                                     buffer,
    763                                     &SampleApp_TransID,
    764                                     AF_DISCV_ROUTE | AF_ACK_REQUEST,
    765                                     AF_DEFAULT_RADIUS ) == afStatus_SUCCESS )
   \   00017E                ; Setup parameters for call to function AF_DataRequest
   \   00017E   75..1E       MOV     ?V0 + 0,#0x1e
   \   000181   78..         MOV     R0,#?V0 + 0
   \   000183   12....       LCALL   ?PUSH_XSTACK_I_ONE
   \   000186   75....       MOV     ?V0 + 0,#SampleApp_TransID & 0xff
   \   000189   75....       MOV     ?V0 + 1,#(SampleApp_TransID >> 8) & 0xff
   \   00018C   78..         MOV     R0,#?V0 + 0
   \   00018E   12....       LCALL   ?PUSH_XSTACK_I_TWO
   \   000191   7403         MOV     A,#0x3
   \   000193   12....       LCALL   ?XSTACK_DISP0_8
   \   000196   8582..       MOV     ?V0 + 0,DPL
   \   000199   8583..       MOV     ?V0 + 1,DPH
   \   00019C   78..         MOV     R0,#?V0 + 0
   \   00019E   12....       LCALL   ?PUSH_XSTACK_I_TWO
   \   0001A1   75..04       MOV     ?V0 + 0,#0x4
   \   0001A4   75..00       MOV     ?V0 + 1,#0x0
   \   0001A7   78..         MOV     R0,#?V0 + 0
   \   0001A9   12....       LCALL   ?PUSH_XSTACK_I_TWO
   \   0001AC   75..05       MOV     ?V0 + 0,#0x5
   \   0001AF   78..         MOV     R0,#?V0 + 0
   \   0001B1   12....       LCALL   ?PUSH_XSTACK_I_TWO
   \   0001B4   7930         MOV     R1,#0x30
   \   0001B6   7C..         MOV     R4,#SampleApp_epDesc & 0xff
   \   0001B8   7D..         MOV     R5,#(SampleApp_epDesc >> 8) & 0xff
   \   0001BA   7A..         MOV     R2,#SampleApp_Point_to_Point_DstAddr & 0xff
   \   0001BC   7B..         MOV     R3,#(SampleApp_Point_to_Point_DstAddr >> 8) & 0xff
   \   0001BE   12....       LCALL   ??AF_DataRequest?relay
   \   0001C1   7409         MOV     A,#0x9
   \   0001C3   12....       LCALL   ?DEALLOC_XSTACK8
   \   0001C6   E9           MOV     A,R1
   \   0001C7   7007         JNZ     ??SampleApp_MessageMSGCB_0
    766                      {
    767                       //  HalUARTWrite(0,"get searchmsg\n\r",sizeof("get searchmsg\n\r"));      
    768                       //  HalUARTWrite(0,"bind one end",12);
    769                         HalLedSet(LED1,LED_OFF);//协调者led1灯灭
   \   0001C9                ; Setup parameters for call to function HalLedSet
   \   0001C9   7A00         MOV     R2,#0x0
   \   0001CB   7901         MOV     R1,#0x1
   \   0001CD   12....       LCALL   ??HalLedSet?relay
    770                      }
    771                      else
    772                      {
    773                        // Error occurred in request to send.
    774                      }
    775                   }
    776              #else        //终端处理入网应答
    777              
    778               if((pkt->cmd.Data[0]=='r' && pkt->cmd.Data[3]=='a') && pkt->srcAddr.addr.shortAddr == 0x0000)
    779               {
    780                #ifdef DEBUG_STAGE
    781                  HalUARTWrite(0,"bind success",12);
    782                #endif
    783                  HalLedSet(LED1,LED_ON);//终端上亮了led1
    784               }
    785               #endif
    786                break;
    787              case SAMPLEAPP_PERIODIC_CLUSTERID:
    788                break;
    789          
    790              case SAMPLEAPP_FLASH_CLUSTERID:
    791              /*  flashTime = BUILD_UINT16(pkt->cmd.Data[1], pkt->cmd.Data[2] );
    792                HalLedBlink( HAL_LED_4, 4, 50, (flashTime / 4) );*/
    793                break;
    794            }
    795          }
   \                     ??SampleApp_MessageMSGCB_0:
   \   0001D0   7404         MOV     A,#0x4
   \   0001D2   12....       LCALL   ?DEALLOC_XSTACK8
   \   0001D5   02....       LJMP    ?Subroutine0 & 0xFFFF

   \                                 In  segment BANKED_CODE, align 1, keep-with-next
   \                     ?Subroutine7:
   \   000000   540F         ANL     A,#0xf
   \   000002   F8           MOV     R0,A
   \   000003   74..         MOV     A,#asc_16 & 0xff
   \   000005   28           ADD     A,R0
   \   000006   FA           MOV     R2,A
   \   000007   74..         MOV     A,#(asc_16 >> 8) & 0xff
   \   000009   3400         ADDC    A,#0x0
   \   00000B   FB           MOV     R3,A
   \   00000C   22           RET

   \                                 In  segment BANKED_CODE, align 1, keep-with-next
   \                     ?Subroutine5:
   \   000000   12....       LCALL   ?Subroutine10 & 0xFFFF
   \                     ??CrossCallReturnLabel_19:
   \   000003   22           RET

   \                                 In  segment BANKED_CODE, align 1, keep-with-next
   \                     ?Subroutine10:
   \   000000   E0           MOVX    A,@DPTR
   \   000001   C3           CLR     C
   \   000002   33           RLC     A
   \   000003   FA           MOV     R2,A
   \   000004   E4           CLR     A
   \   000005   33           RLC     A
   \   000006   FB           MOV     R3,A
   \   000007   8882         MOV     DPL,R0
   \   000009   8983         MOV     DPH,R1
   \   00000B   22           RET

   \                                 In  segment BANKED_CODE, align 1, keep-with-next
   \                     ?Subroutine4:
   \   000000   12....       LCALL   ?Subroutine11 & 0xFFFF
   \                     ??CrossCallReturnLabel_21:
   \   000003   E0           MOVX    A,@DPTR
   \   000004   F8           MOV     R0,A
   \   000005   A3           INC     DPTR
   \   000006   E0           MOVX    A,@DPTR
   \   000007   22           RET

   \                                 In  segment BANKED_CODE, align 1, keep-with-next
   \                     ?Subroutine11:
   \   000000   EE           MOV     A,R6
   \   000001   2422         ADD     A,#0x22
   \   000003   F582         MOV     DPL,A
   \   000005   EF           MOV     A,R7
   \   000006   3400         ADDC    A,#0x0
   \   000008   F583         MOV     DPH,A
   \   00000A   22           RET

   \                                 In  segment BANKED_CODE, align 1, keep-with-next
   \                     ?Subroutine3:
   \   000000   12....       LCALL   ?Subroutine8 & 0xFFFF
   \                     ??CrossCallReturnLabel_15:
   \   000003   22           RET

   \                                 In  segment BANKED_CODE, align 1, keep-with-next
   \                     ?Subroutine8:
   \   000000   E0           MOVX    A,@DPTR
   \   000001   33           RLC     A
   \   000002   F8           MOV     R0,A
   \   000003   E4           CLR     A
   \   000004   33           RLC     A
   \   000005   F9           MOV     R1,A
   \   000006   74..         MOV     A,#Routing_Table & 0xff
   \   000008   28           ADD     A,R0
   \   000009   F8           MOV     R0,A
   \   00000A   74..         MOV     A,#(Routing_Table >> 8) & 0xff
   \   00000C   39           ADDC    A,R1
   \   00000D   F9           MOV     R1,A
   \   00000E   E8           MOV     A,R0
   \   00000F   2A           ADD     A,R2
   \   000010   F582         MOV     DPL,A
   \   000012   E9           MOV     A,R1
   \   000013   3B           ADDC    A,R3
   \   000014   F583         MOV     DPH,A
   \   000016   22           RET

   \                                 In  segment BANKED_CODE, align 1, keep-with-next
   \                     ?Subroutine1:
   \   000000   12....       LCALL   ?Subroutine9 & 0xFFFF
   \                     ??CrossCallReturnLabel_17:
   \   000003   12....       LCALL   ?Subroutine10 & 0xFFFF
   \                     ??CrossCallReturnLabel_18:
   \   000006   A3           INC     DPTR
   \   000007   12....       LCALL   ?Subroutine8 & 0xFFFF
   \                     ??CrossCallReturnLabel_14:
   \   00000A   E0           MOVX    A,@DPTR
   \   00000B   22           RET

   \                                 In  segment BANKED_CODE, align 1, keep-with-next
   \                     ?Subroutine9:
   \   000000   12....       LCALL   ??HalUARTWrite?relay
   \   000003   8E82         MOV     DPL,R6
   \   000005   8F83         MOV     DPH,R7
   \   000007   12....       LCALL   ?Subroutine12 & 0xFFFF
   \                     ??CrossCallReturnLabel_25:
   \   00000A                ; Setup parameters for call to function HalUARTWrite
   \   00000A                ; Setup parameters for call to function HalUARTWrite
   \   00000A                ; Setup parameters for call to function HalUARTWrite
   \   00000A   7C01         MOV     R4,#0x1
   \   00000C   7D00         MOV     R5,#0x0
   \   00000E   8882         MOV     DPL,R0
   \   000010   8983         MOV     DPH,R1
   \   000012   A3           INC     DPTR
   \   000013   A3           INC     DPTR
   \   000014   22           RET

   \                                 In  segment BANKED_CODE, align 1, keep-with-next
   \                     ?Subroutine6:
   \   000000   12....       LCALL   ?Subroutine12 & 0xFFFF
   \                     ??CrossCallReturnLabel_24:
   \   000003   8882         MOV     DPL,R0
   \   000005   8983         MOV     DPH,R1
   \   000007   22           RET

   \                                 In  segment BANKED_CODE, align 1, keep-with-next
   \                     ?Subroutine12:
   \   000000   E0           MOVX    A,@DPTR
   \   000001   F8           MOV     R0,A
   \   000002   A3           INC     DPTR
   \   000003   E0           MOVX    A,@DPTR
   \   000004   F9           MOV     R1,A
   \   000005   22           RET
    796          
    797          /*********************************************************************
    798           * @fn      SampleApp_SendPeriodicMessage
    799           *
    800           * @brief   Send the periodic message.
    801           *
    802           * @param   none
    803           *
    804           * @return  none
    805           */

   \                                 In  segment BANKED_CODE, align 1, keep-with-next
    806          void SampleApp_SendPeriodicMessage( void )
   \                     SampleApp_SendPeriodicMessage:
    807          {
   \   000000                ; Saved register size: 0
   \   000000                ; Auto size: 0
    808            /*
    809            if ( AF_DataRequest( &SampleApp_Periodic_DstAddr, &SampleApp_epDesc,
    810                                 SAMPLEAPP_PERIODIC_CLUSTERID,
    811                                 1,
    812                                 (uint8*)&SampleAppPeriodicCounter,
    813                                 &SampleApp_TransID,
    814                                 AF_DISCV_ROUTE,
    815                                 AF_DEFAULT_RADIUS ) == afStatus_SUCCESS )
    816            {
    817            }
    818            else
    819            {
    820              // Error occurred in request to send.
    821            }
    822            */
    823          }
   \   000000   02....       LJMP    ?BRET
    824          
    825          /*********************************************************************
    826           * @fn      SampleApp_SendFlashMessage
    827           *
    828           * @brief   Send the flash message to group 1.
    829           *
    830           * @param   flashTime - in milliseconds
    831           *
    832           * @return  none
    833           */
    834          

   \                                 In  segment BANKED_CODE, align 1, keep-with-next
    835          void SampleApp_SendFlashMessage( uint16 flashTime )
   \                     SampleApp_SendFlashMessage:
    836          {
   \   000000                ; Saved register size: 0
   \   000000                ; Auto size: 0
    837            /*
    838            uint8 buffer[3];
    839            buffer[0] = (uint8)(SampleAppFlashCounter++);
    840            buffer[1] = LO_UINT16( flashTime );
    841            buffer[2] = HI_UINT16( flashTime );
    842          
    843            if ( AF_DataRequest( &SampleApp_Flash_DstAddr, &SampleApp_epDesc,
    844                                 SAMPLEAPP_FLASH_CLUSTERID,
    845                                 3,
    846                                 buffer,
    847                                 &SampleApp_TransID,
    848                                 AF_DISCV_ROUTE,
    849                                 AF_DEFAULT_RADIUS ) == afStatus_SUCCESS )
    850            {
    851            }
    852            else
    853            {
    854              // Error occurred in request to send.
    855            }
    856            */
    857          }
   \   000000   02....       LJMP    ?BRET
    858          
    859          
    860          /*********************************************************************
    861           * @fn      SampleApp_SerialCMD
    862           *
    863           * @brief   串口给的数据处理
    864           *
    865           *
    866           * @return  none
    867           */
    868          #ifdef DEV_COOR

   \                                 In  segment BANKED_CODE, align 1, keep-with-next
    869          void SampleApp_SerialCMD(mtOSALSerialData_t *cmdMsg) 
   \                     SampleApp_SerialCMD:
    870          {
   \   000000   74F2         MOV     A,#-0xe
   \   000002   12....       LCALL   ?BANKED_ENTER_XDATA
   \   000005                ; Saved register size: 14
   \   000005                ; Auto size: 0
    871            uint8 dev_num,len,*str = NULL;//len有用的数据长度
    872            str = (cmdMsg->msg+1);//指向真正的数据
   \   000005   8A82         MOV     DPL,R2
   \   000007   8B83         MOV     DPH,R3
   \   000009   A3           INC     DPTR
   \   00000A   A3           INC     DPTR
   \   00000B   12....       LCALL   ?Subroutine6 & 0xFFFF
   \                     ??CrossCallReturnLabel_11:
   \   00000E   A3           INC     DPTR
   \   00000F   8582..       MOV     ?V0 + 2,DPL
   \   000012   8583..       MOV     ?V0 + 3,DPH
    873            len = *(cmdMsg->msg);//指向数据头 就是有多少数据
   \   000015   8882         MOV     DPL,R0
   \   000017   8983         MOV     DPH,R1
   \   000019   E0           MOVX    A,@DPTR
   \   00001A   F5..         MOV     ?V0 + 0,A
    874            /****************以下为串口打印接收到的数据*/
    875            #ifdef DEBUG_STAGE
    876              int i;
    877              for(i = 0; i <= len; i++)
   \   00001C   7E00         MOV     R6,#0x0
   \   00001E   7F00         MOV     R7,#0x0
    878              HalUARTWrite(0,str+i,1);
   \                     ??SampleApp_SerialCMD_0:
   \   000020                ; Setup parameters for call to function HalUARTWrite
   \   000020   7C01         MOV     R4,#0x1
   \   000022   7D00         MOV     R5,#0x0
   \   000024   E5..         MOV     A,?V0 + 2
   \   000026   2E           ADD     A,R6
   \   000027   FA           MOV     R2,A
   \   000028   E5..         MOV     A,?V0 + 3
   \   00002A   3F           ADDC    A,R7
   \   00002B   FB           MOV     R3,A
   \   00002C   7900         MOV     R1,#0x0
   \   00002E   12....       LCALL   ??HalUARTWrite?relay
   \   000031   EE           MOV     A,R6
   \   000032   2401         ADD     A,#0x1
   \   000034   0E           INC     R6
   \   000035   EF           MOV     A,R7
   \   000036   3400         ADDC    A,#0x0
   \   000038   FF           MOV     R7,A
   \   000039   85....       MOV     ?V0 + 4,?V0 + 0
   \   00003C   C3           CLR     C
   \   00003D   E5..         MOV     A,?V0 + 4
   \   00003F   9E           SUBB    A,R6
   \   000040   E4           CLR     A
   \   000041   9F           SUBB    A,R7
   \   000042   A2D2         MOV     C,0xD0 /* PSW */.2
   \   000044   65D0         XRL     A,PSW
   \   000046   33           RLC     A
   \   000047   50D7         JNC     ??SampleApp_SerialCMD_0
    879              HalUARTWrite(0,"\n",1);
   \   000049                ; Setup parameters for call to function HalUARTWrite
   \   000049   7C01         MOV     R4,#0x1
   \   00004B   7D00         MOV     R5,#0x0
   \   00004D   7A..         MOV     R2,#`?<Constant "\\n">` & 0xff
   \   00004F   7B..         MOV     R3,#(`?<Constant "\\n">` >> 8) & 0xff
   \   000051   7900         MOV     R1,#0x0
   \   000053   12....       LCALL   ??HalUARTWrite?relay
    880            #endif
    881              /******仿照点对点的发送模式***/
    882              /*
    883              afAddrType_t SampleApp_Point_to_Point_DstAddr;
    884              SampleApp_Point_to_Point_DstAddr.addrMode = (afAddrMode_t)Addr16Bit;
    885              SampleApp_Point_to_Point_DstAddr.endPoint = SAMPLEAPP_ENDPOINT;
    886              ampleApp_Point_to_Point_DstAddr.addr.shortAddr = 0xffff;//数据从终端发给协调者
    887              */
    888              if(str[CmdFlag] == FRAME_FLAG && len == CMD_LEN)//判断框架有没有正确 长度有没有正确
   \   000056   85..82       MOV     DPL,?V0 + 2
   \   000059   85..83       MOV     DPH,?V0 + 3
   \   00005C   E0           MOVX    A,@DPTR
   \   00005D   647F         XRL     A,#0x7f
   \   00005F   7075         JNZ     ??SampleApp_SerialCMD_1
   \   000061   7407         MOV     A,#0x7
   \   000063   65..         XRL     A,?V0 + 0
   \   000065   706F         JNZ     ??SampleApp_SerialCMD_1
    889              {
    890                for(dev_num = 1; dev_num <= DEV_COUNT; dev_num++)
    891                {
    892                  if(Routing_Table[str[CmdRoomId]][dev_num] == 0)
   \   000067   A3           INC     DPTR
   \   000068   A3           INC     DPTR
   \   000069   A3           INC     DPTR
   \   00006A   A3           INC     DPTR
   \   00006B   12....       LCALL   ?Subroutine2 & 0xFFFF
   \                     ??CrossCallReturnLabel_2:
   \   00006E   E8           MOV     A,R0
   \   00006F   49           ORL     A,R1
   \   000070   85..82       MOV     DPL,?V0 + 2
   \   000073   85..83       MOV     DPH,?V0 + 3
   \   000076   A3           INC     DPTR
   \   000077   A3           INC     DPTR
   \   000078   A3           INC     DPTR
   \   000079   A3           INC     DPTR
   \   00007A   7012         JNZ     ??SampleApp_SerialCMD_2
    893                  {
    894                     str[CmdRoomId] = ERROR_FLAG;
   \   00007C   746F         MOV     A,#0x6f
   \   00007E   F0           MOVX    @DPTR,A
    895                     HalUARTWrite(0,str,CMD_LEN);
   \   00007F                ; Setup parameters for call to function HalUARTWrite
   \   00007F   7C07         MOV     R4,#0x7
   \   000081   7D00         MOV     R5,#0x0
   \   000083   AA..         MOV     R2,?V0 + 2
   \   000085   AB..         MOV     R3,?V0 + 3
   \   000087   7900         MOV     R1,#0x0
   \   000089   12....       LCALL   ??HalUARTWrite?relay
    896                     return;
   \   00008C   8048         SJMP    ??SampleApp_SerialCMD_1
    897                  }
    898                 SampleApp_Point_to_Point_DstAddr.addr.shortAddr = Routing_Table[str[CmdRoomId]][dev_num];
   \                     ??SampleApp_SerialCMD_2:
   \   00008E   12....       LCALL   ?Subroutine2 & 0xFFFF
   \                     ??CrossCallReturnLabel_3:
   \   000091   90....       MOV     DPTR,#SampleApp_Point_to_Point_DstAddr
   \   000094   E8           MOV     A,R0
   \   000095   F0           MOVX    @DPTR,A
   \   000096   A3           INC     DPTR
   \   000097   E9           MOV     A,R1
   \   000098   F0           MOVX    @DPTR,A
    899                       if ( AF_DataRequest( &SampleApp_Point_to_Point_DstAddr,
    900                                 &SampleApp_epDesc,
    901                                 SAMPLEAPP_POINT_TO_POINT_CLUSTERID,
    902                                 len,//数据长度
    903                                 str,//数据内容
    904                                 &SampleApp_TransID,
    905                                 AF_DISCV_ROUTE,
    906                                 AF_DEFAULT_RADIUS ) == afStatus_SUCCESS )
   \   000099                ; Setup parameters for call to function AF_DataRequest
   \   000099   75..1E       MOV     ?V0 + 0,#0x1e
   \   00009C   78..         MOV     R0,#?V0 + 0
   \   00009E   12....       LCALL   ?PUSH_XSTACK_I_ONE
   \   0000A1   75....       MOV     ?V0 + 0,#SampleApp_TransID & 0xff
   \   0000A4   75....       MOV     ?V0 + 1,#(SampleApp_TransID >> 8) & 0xff
   \   0000A7   78..         MOV     R0,#?V0 + 0
   \   0000A9   12....       LCALL   ?PUSH_XSTACK_I_TWO
   \   0000AC   78..         MOV     R0,#?V0 + 2
   \   0000AE   12....       LCALL   ?PUSH_XSTACK_I_TWO
   \   0000B1   75..07       MOV     ?V0 + 0,#0x7
   \   0000B4   75..00       MOV     ?V0 + 1,#0x0
   \   0000B7   78..         MOV     R0,#?V0 + 0
   \   0000B9   12....       LCALL   ?PUSH_XSTACK_I_TWO
   \   0000BC   75..03       MOV     ?V0 + 0,#0x3
   \   0000BF   78..         MOV     R0,#?V0 + 0
   \   0000C1   12....       LCALL   ?PUSH_XSTACK_I_TWO
   \   0000C4   7920         MOV     R1,#0x20
   \   0000C6   7C..         MOV     R4,#SampleApp_epDesc & 0xff
   \   0000C8   7D..         MOV     R5,#(SampleApp_epDesc >> 8) & 0xff
   \   0000CA   7A..         MOV     R2,#SampleApp_Point_to_Point_DstAddr & 0xff
   \   0000CC   7B..         MOV     R3,#(SampleApp_Point_to_Point_DstAddr >> 8) & 0xff
   \   0000CE   12....       LCALL   ??AF_DataRequest?relay
   \   0000D1   7409         MOV     A,#0x9
   \   0000D3   12....       LCALL   ?DEALLOC_XSTACK8
    907                          {
    908                            }
    909                       else
    910                       {
    911                          // Error occurred in request to send.
    912                       }
    913               }
   \                     ??SampleApp_SerialCMD_1:
   \   0000D6   7F06         MOV     R7,#0x6
   \   0000D8   02....       LJMP    ?BANKED_LEAVE_XDATA
    914           }
    915          }

   \                                 In  segment BANKED_CODE, align 1, keep-with-next
   \                     ?Subroutine2:
   \   000000   E0           MOVX    A,@DPTR
   \   000001   C3           CLR     C
   \   000002   33           RLC     A
   \   000003   F8           MOV     R0,A
   \   000004   E4           CLR     A
   \   000005   33           RLC     A
   \   000006   F9           MOV     R1,A
   \   000007   74..         MOV     A,#(Routing_Table + 2) & 0xff
   \   000009   28           ADD     A,R0
   \   00000A   F582         MOV     DPL,A
   \   00000C   74..         MOV     A,#((Routing_Table + 2) >> 8) & 0xff
   \   00000E   39           ADDC    A,R1
   \   00000F   F583         MOV     DPH,A
   \   000011   12....       LCALL   ?Subroutine12 & 0xFFFF
   \                     ??CrossCallReturnLabel_23:
   \   000014   22           RET

   \                                 In  segment XDATA_ID, align 1, keep-with-next
   \                     `?<Initializer for asc_16>`:
   \   000000   30           DB 48
   \   000001   31           DB 49
   \   000002   32           DB 50
   \   000003   33           DB 51
   \   000004   34           DB 52
   \   000005   35           DB 53
   \   000006   36           DB 54
   \   000007   37           DB 55
   \   000008   38           DB 56
   \   000009   39           DB 57
   \   00000A   41           DB 65
   \   00000B   42           DB 66
   \   00000C   43           DB 67
   \   00000D   44           DB 68
   \   00000E   45           DB 69
   \   00000F   46           DB 70

   \                                 In  segment BANK_RELAYS, align 1
   \                     ??SampleApp_Init?relay:
   \   000000   12....       LCALL   ?BDISPATCH
   \   000003   ......       DC24    SampleApp_Init

   \                                 In  segment BANK_RELAYS, align 1
   \                     ??SampleApp_ProcessEvent?relay:
   \   000000   12....       LCALL   ?BDISPATCH
   \   000003   ......       DC24    SampleApp_ProcessEvent

   \                                 In  segment BANK_RELAYS, align 1
   \                     ??SampleApp_HandleKeys?relay:
   \   000000   12....       LCALL   ?BDISPATCH
   \   000003   ......       DC24    SampleApp_HandleKeys

   \                                 In  segment BANK_RELAYS, align 1
   \                     ??SampleApp_MessageMSGCB?relay:
   \   000000   12....       LCALL   ?BDISPATCH
   \   000003   ......       DC24    SampleApp_MessageMSGCB

   \                                 In  segment BANK_RELAYS, align 1
   \                     ??SampleApp_SendPeriodicMessage?relay:
   \   000000   12....       LCALL   ?BDISPATCH
   \   000003   ......       DC24    SampleApp_SendPeriodicMessage

   \                                 In  segment BANK_RELAYS, align 1
   \                     ??SampleApp_SendFlashMessage?relay:
   \   000000   12....       LCALL   ?BDISPATCH
   \   000003   ......       DC24    SampleApp_SendFlashMessage

   \                                 In  segment BANK_RELAYS, align 1
   \                     ??SampleApp_SerialCMD?relay:
   \   000000   12....       LCALL   ?BDISPATCH
   \   000003   ......       DC24    SampleApp_SerialCMD

   \                                 In  segment XDATA_ROM_C, align 1
   \                     `?<Constant "Group 1">`:
   \   000000   47726F75     DB "Group 1"
   \            70203100

   \                                 In  segment XDATA_ROM_C, align 1
   \                     `?<Constant "SampleApp">`:
   \   000000   53616D70     DB "SampleApp"
   \            6C654170
   \            7000    

   \                                 In  segment XDATA_ROM_C, align 1
   \                     `?<Constant "\\n">`:
   \   000000   0A00         DB "\012"
    916          #endif

   Maximum stack usage in bytes:

     Function                      ISTACK PSTACK XSTACK
     --------                      ------ ------ ------
     SampleApp_HandleKeys              0      0      0
     SampleApp_Init                    0      0     14
       -> MT_UartInit                  0      0     22
       -> MT_UartRegisterTaskID        0      0     22
       -> afRegister                   0      0     22
       -> RegisterForKeys              0      0     22
       -> osal_memcpy                  0      0     28
       -> aps_AddGroup                 0      0     22
       -> HalLcdWriteString            0      0     22
     SampleApp_MessageMSGCB            0      0     37
       -> HalUARTWrite                 0      0     32
       -> HalLedSet                    0      0     32
       -> HalUARTWrite                 0      0     32
       -> HalUARTWrite                 0      0     32
       -> HalUARTWrite                 0      0     32
       -> HalUARTWrite                 0      0     32
       -> AF_DataRequest               0      0     50
       -> HalLedSet                    0      0     32
     SampleApp_ProcessEvent            0      0     12
       -> osal_msg_receive             0      0     24
       -> osal_msg_deallocate          0      0     24
       -> osal_msg_receive             0      0     24
       -> SampleApp_SerialCMD          0      0     24
       -> SampleApp_MessageMSGCB       0      0     24
       -> osal_rand                    0      0     24
       -> osal_start_timerEx           0      0     24
     SampleApp_SendFlashMessage        0      0      0
     SampleApp_SendPeriodicMessage     0      0      0
     SampleApp_SerialCMD               0      0     35
       -> HalUARTWrite                 0      0     28
       -> HalUARTWrite                 0      0     28
       -> HalUARTWrite                 0      0     28
       -> AF_DataRequest               0      0     46


   Segment part sizes:

     Function/Label                        Bytes
     --------------                        -----
     SampleApp_ClusterList                    4
     SampleApp_SimpleDesc                    12
     SampleApp_epDesc                         6
     SampleApp_TaskID                         1
     SampleApp_NwkState                       1
     asc_16                                  16
     SampleApp_TransID                        1
     SampleApp_Periodic_DstAddr              12
     SampleApp_Flash_DstAddr                 12
     SampleApp_Point_to_Point_DstAddr
                                             12
     SampleApp_Group                         18
     SampleAppPeriodicCounter                 1
     SampleAppFlashCounter                    1
     Routing_Table                            6
     SampleApp_Init                         186
     SampleApp_ProcessEvent                 135
     ?Subroutine0                             5
     SampleApp_HandleKeys                     3
     SampleApp_MessageMSGCB                 472
     ?Subroutine7                            13
     ?Subroutine5                             4
     ?Subroutine10                           12
     ?Subroutine4                             8
     ?Subroutine11                           11
     ?Subroutine3                             4
     ?Subroutine8                            23
     ?Subroutine1                            12
     ?Subroutine9                            21
     ?Subroutine6                             8
     ?Subroutine12                            6
     SampleApp_SendPeriodicMessage            3
     SampleApp_SendFlashMessage               3
     SampleApp_SerialCMD                    219
     ?Subroutine2                            21
     ?<Initializer for asc_16>               16
     ??SampleApp_Init?relay                   6
     ??SampleApp_ProcessEvent?relay           6
     ??SampleApp_HandleKeys?relay             6
     ??SampleApp_MessageMSGCB?relay           6
     ??SampleApp_SendPeriodicMessage?relay    6
     ??SampleApp_SendFlashMessage?relay       6
     ??SampleApp_SerialCMD?relay              6
     ?<Constant "Group 1">                    8
     ?<Constant "SampleApp">                 10
     ?<Constant "\n">                         2

 
 1 169 bytes in segment BANKED_CODE
    42 bytes in segment BANK_RELAYS
    16 bytes in segment XDATA_I
    16 bytes in segment XDATA_ID
    36 bytes in segment XDATA_ROM_C
    71 bytes in segment XDATA_Z
 
 1 227 bytes of CODE  memory
    36 bytes of CONST memory
    87 bytes of XDATA memory

Errors: none
Warnings: none
